((dp0
S'arm_dbg_args'
p1
S'-via:"c:\\Users\\User\\Desktop\\SlidingHome\\build_slidinghomec_vc11\\SlidingHomeC_vc11_arm_debug.via" -qemu'
p2
sS'game-icf'
p3
S''
p4
sS'dist'
p5
NsS'csproj'
p6
g4
sS'module_path_append'
p7
NsS'global_path'
p8
S'c:\\users\\user\\desktop'
p9
sS'system_path'
p10
S'c:\\marmalade\\7.4\\s3e\\makefile_builder'
p11
sS'android_x86_dbg_args'
p12
S'../../tools/DeployTool/DeployTool.exe --dir "c:\\Users\\User\\Desktop\\SlidingHome\\build_slidinghomec_vc11"'
p13
sS'no-emit'
p14
NsS'arm-float-abi'
p15
g4
sS'arm_rel_rtsm_args'
p16
S'-via:"c:\\Users\\User\\Desktop\\SlidingHome\\build_slidinghomec_vc11\\SlidingHomeC_vc11_arm_release.via" -qemu'
p17
sS'amd64'
p18
NsS'line-width'
p19
I80
sS'gcc_dbg_args'
p20
S'-via:"c:\\Users\\User\\Desktop\\SlidingHome\\build_slidinghomec_vc11\\SlidingHomeC_vc11_gcc_debug.via" -qemu'
p21
sS'android-x86'
p22
NsS'x86_dbg_exe'
p23
S'c:/marmalade/7.4/s3e\\win32\\s3e_simulator_debug.exe'
p24
sS'disable-runtime-checks'
p25
NsS'release'
p26
NsS'no-make'
p27
NsS'xcode-x86-build-settings'
p28
g4
sS'optimise-size'
p29
NsS'output-name-debug'
p30
g4
sS'arm-fpu'
p31
g4
sS'proj_name'
p32
S'SlidingHomeC_vc11'
p33
sS'rvct-version'
p34
S'none'
p35
sS'compiler'
p36
g4
sS'execute'
p37
NsS'compile-static'
p38
NsS'msvc-project'
p39
NsS'buildenv'
p40
S'VC11'
p41
sS'quick'
p42
NsS'module_path'
p43
(lp44
S'c:/Users/User/Desktop/SlidingHome/modules'
p45
asS'mkf_default'
p46
S's3e-default.mkf'
p47
sS'use-release-std-libs'
p48
NsS'using_perforce'
p49
I00
sS'tizen-x86'
p50
NsS'mips-s3e'
p51
NsS's3e-api-lib-name'
p52
S's3e_api_iwgl'
p53
sS'ios-no-pic'
p54
NsS'shared-arm-lib'
p55
NsS'arm-cpu'
p56
g4
sS'compile-thumb'
p57
NsS'no-ide'
p58
NsS'msvc-version'
p59
S'6.0'
p60
sS'arm'
p61
NsS'builddir'
p62
g4
sS'compile-debug-as-release'
p63
I0
sS'arm-arch'
p64
g4
sS'brief'
p65
NsS'dll'
p66
NsS'buildenv-toolset'
p67
g4
sS'version'
p68
NsS'ccache'
p69
I0
sS'offline'
p70
NsS'ios-version'
p71
g4
sS'hub_data'
p72
g4
sS'fake_vc_call'
p73
I01
sS'jobs'
p74
I0
sS'linkflags'
p75
NsS'debug'
p76
NsS'xcode-build-order'
p77
g4
sS'gcc_rel_rtsm_args'
p78
S'-via:"c:\\Users\\User\\Desktop\\SlidingHome\\build_slidinghomec_vc11\\SlidingHomeC_vc11_gcc_release.via" -qemu'
p79
sS'done_defaults'
p80
I1
sS'path'
p81
NsS's3e-data-dir'
p82
S'c:/Users/User/Desktop/SlidingHome\\data'
p83
sS'enable-exceptions'
p84
NsS'osx-dll'
p85
NsS'extension'
p86
g4
sS'no-vc6'
p87
NsS'non-interactive'
p88
NsS'win32-console'
p89
NsS'dist-format'
p90
g4
sS's3e-force-arch'
p91
NsS'dump_defines'
p92
NsS'use_prebuilt'
p93
NsS'gcc-version'
p94
g4
sS'x86_dbg_args'
p95
S'-via:"c:\\Users\\User\\Desktop\\SlidingHome\\build_slidinghomec_vc11\\SlidingHomeC_vc11_debug.via"'
p96
sS'tizen_x86_dbg_args'
p97
g13
sS'arm-debugger'
p98
g4
sS'use_temp_extension'
p99
NsS'verbose'
p100
I0
sS'log'
p101
NsS'no-strip'
p102
NsS'rebuild'
p103
NsS'win32-simulator-dll'
p104
NsS'strict'
p105
NsS'mips_dbg_args'
p106
g13
sS'enable-global-path'
p107
NsS'cflags'
p108
NsS'dist-dir'
p109
g4
sS'xcode-arm-build-settings'
p110
g4
sS'jflags'
p111
NsS'csprojSDKRefs'
p112
g4
sS'tizen_x86_rel_exe'
p113
S'c:\\marmalade\\7.4\\s3e\\makefile_builder\\tool_launcher.exe'
p114
sS'test-assets'
p115
g4
sS'distcc'
p116
NsS'external-compiler'
p117
NsS'no-distcc'
p118
NsS'preinclude'
p119
NsS'using_sdk'
p120
I01
sS'nologo'
p121
NsS'warn-level'
p122
I2
sS'mips_dbg_exe'
p123
g114
sS'mkb_in'
p124
S'c:/Users/User/Desktop/SlidingHome/SlidingHomeC.mkb'
p125
sS'tizen_x86_dbg_exe'
p126
g114
sS'arm_dbg_exe'
p127
S'c:/marmalade/7.4/s3e\\bin\\armdebug.exe'
p128
sS'csprojDLLRef'
p129
NsS'tizen_x86_rel_args'
p130
g13
sS'android_x86_dbg_exe'
p131
g114
sS'test-config'
p132
g4
sS'list-targets'
p133
NsS'arm_rel_exe'
p134
g114
sS'arm_rel_args'
p135
g13
sS'makedeps'
p136
NsS'android_x86_rel_exe'
p137
g114
sS'default-buildenv'
p138
S'VC11'
p139
sS'x86_rel_exe'
p140
g24
sS'preprocess-java'
p141
NsS'mips_rel_args'
p142
g13
sS'defines'
p143
NsS'lib'
p144
NsS'global_argv'
p145
(lp146
S'C:\\Marmalade\\7.4\\s3e\\makefile_builder\\mkb.py'
p147
aS'C:/Users/User/Desktop/SlidingHome/SlidingHomeC.mkb'
p148
aS'--buildenv=VC11'
p149
aS'--fake-vc-call'
p150
asS'make'
p151
NsS'optimise-speed'
p152
NsS'internal'
p153
NsS'enable-stdinc'
p154
NsS'deploy-only'
p155
NsS'x86'
p156
NsS'deploy'
p157
g4
sS'x86_run_exe'
p158
S'c:/marmalade/7.4/s3e\\win32\\s3e_console.exe'
p159
sS'x86_rel_args'
p160
S'-via:"c:\\Users\\User\\Desktop\\SlidingHome\\build_slidinghomec_vc11\\SlidingHomeC_vc11_release.via"'
p161
sS'gcc_rel_args'
p162
g13
sS'mips'
p163
NsS'xcode-build-settings'
p164
g4
sS'incredibuild'
p165
NsS'strict-compile'
p166
NsS'use-auto-subdirs'
p167
NsS'mips_rel_exe'
p168
g114
sS'android_x86_rel_args'
p169
g13
sS'app-icf'
p170
g4
sS'deployargs'
p171
NsS'iosnativedebug'
p172
NsS'mkf_in'
p173
(lp174
S'c:\\marmalade\\7.4\\s3e\\s3e-default.mkf'
p175
aS'c:\\marmalade\\7.4\\modules\\iw2d\\iw2d.mkf'
p176
aS'c:\\marmalade\\7.4\\modules\\iwgx\\iwgx.mkf'
p177
aS'c:\\marmalade\\7.4\\modules\\iwgl\\iwgl.mkf'
p178
aS'c:\\marmalade\\7.4\\modules\\iwutil\\iwutil.mkf'
p179
aS'c:\\marmalade\\7.4\\modules\\third_party\\libjpeg\\libjpeg.mkf'
p180
aS'c:\\marmalade\\7.4\\modules\\third_party\\libpng\\libpng.mkf'
p181
aS'c:\\marmalade\\7.4\\modules\\third_party\\zlib\\zlib.mkf'
p182
aS'c:\\marmalade\\7.4\\modules\\iwgeom\\iwgeom.mkf'
p183
aS'c:\\marmalade\\7.4\\modules\\iwresmanager\\iwresmanager.mkf'
p184
aS'c:\\marmalade\\7.4\\extensions\\pvrtextool\\pvrtextool.mkf'
p185
aS'c:\\marmalade\\7.4\\modules\\iwgxfont\\iwgxfont.mkf'
p186
aS'c:\\marmalade\\7.4\\modules\\third_party\\tiniconv\\tiniconv.mkf'
p187
aS'c:\\marmalade\\7.4\\modules\\iw2dscenegraph\\iw2dscenegraph.mkf'
p188
aS'c:\\marmalade\\7.4\\modules\\iw2dscenegraphcore\\iw2dscenegraphcore.mkf'
p189
aS'c:\\marmalade\\7.4\\modules\\iwtween\\iwtween.mkf'
p190
aS'c:\\users\\user\\desktop\\slidinghome\\modules\\soundengine\\soundengine.mkf'
p191
asS'strict-mkb'
p192
NsS'executeargs'
p193
NsS'clean'
p194
NsS'no-asm'
p195
NsS'output-name'
p196
g4
sS'no-modules'
p197
NsS'find_define'
p198
g4
s(dp199
S'c:\\marmalade\\7.4\\s3e\\makefile_builder\\plugins\\Emitter.pyc'
p200
F1412178848.0
sS'c:\\marmalade\\7.4\\s3e\\makefile_builder\\templates\\ws8_ext_sln.pyc'
p201
F1412178848.0
sS'c:\\marmalade\\7.4\\s3e\\makefile_builder\\templates\\MainWindow.xib'
p202
F1412177258.0
sS'c:\\marmalade\\7.4\\s3e\\makefile_builder\\templates\\template.suo'
p203
F1412177258.0
sS'c:\\marmalade\\7.4\\s3e\\makefile_builder\\plugins\\xcode4_schememanagement.py'
p204
F1412177258.0
sS'c:\\marmalade\\7.4\\s3e\\makefile_builder\\templates\\ws81_sln.pyc'
p205
F1412178848.0
sS'c:\\marmalade\\7.4\\s3e\\makefile_builder\\templates\\win8_ext_csproj.pyc'
p206
F1412178848.0
sS'c:\\marmalade\\7.4\\s3e\\makefile_builder\\mkb_option.pyc'
p207
F1412178848.0
sS'c:\\marmalade\\7.4\\s3e\\makefile_builder\\plugins\\s3e_xcode.py'
p208
F1412177258.0
sS'c:\\marmalade\\7.4\\s3e\\makefile_builder\\plugins\\s3e_scons.pyc'
p209
F1412178848.0
sS'c:\\marmalade\\7.4\\s3e\\makefile_builder\\templates\\win8_vcxproj.pyc'
p210
F1412178848.0
sS'c:\\marmalade\\7.4\\s3e\\makefile_builder\\plugins\\null.pyc'
p211
F1412178848.0
sS'c:\\marmalade\\7.4\\s3e\\makefile_builder\\templates\\vc8_user.pyc'
p212
F1412178848.0
sS'c:\\marmalade\\7.4\\s3e\\makefile_builder\\templates\\wp81_ext_sln.pyc'
p213
F1412178848.0
sS'c:\\marmalade\\7.4\\s3e\\makefile_builder\\templates\\scons.pyc'
p214
F1412178848.0
sS'c:\\marmalade\\7.4\\s3e\\makefile_builder\\templates\\wp8_ext_csproj.pyc'
p215
F1412178848.0
sS'c:\\marmalade\\7.4\\s3e\\makefile_builder\\templates\\xcode_pbxuser.py'
p216
F1412177258.0
sS'c:\\marmalade\\7.4\\s3e\\makefile_builder\\plugins\\s3e_qmake.py'
p217
F1412177258.0
sS'c:\\marmalade\\7.4\\s3e\\makefile_builder\\plugins\\iphone.pyc'
p218
F1412178848.0
sS'c:\\marmalade\\7.4\\s3e\\makefile_builder\\templates\\ws81_ext_csproj.pyc'
p219
F1412178848.0
sS'c:\\marmalade\\7.4\\s3e\\makefile_builder\\templates\\vc6_opt.pyc'
p220
F1412178848.0
sS'c:\\marmalade\\7.4\\s3e\\makefile_builder\\plugins\\s3e_win8.pyc'
p221
F1412178848.0
sS'c:\\marmalade\\7.4\\s3e\\makefile_builder\\mkb_main.pyc'
p222
F1412178848.0
sS'c:\\marmalade\\7.4\\s3e\\makefile_builder\\templates\\wp8_csproj.pyc'
p223
F1412178848.0
sS'c:\\marmalade\\7.4\\s3e\\makefile_builder\\templates\\win32_vcproj.pyc'
p224
F1412178848.0
sS'c:\\marmalade\\7.4\\s3e\\makefile_builder\\templates\\win8_sln.pyc'
p225
F1412178848.0
sS'c:\\marmalade\\7.4\\s3e\\makefile_builder\\mkb_launcher.exe'
p226
F1412177658.0
sS'c:\\marmalade\\7.4\\s3e\\makefile_builder\\plugins\\osx_xcode.pyc'
p227
F1412178848.0
sS'c:\\marmalade\\7.4\\s3e\\makefile_builder\\plugins'
p228
F1414008465.9015057
sS'c:\\marmalade\\7.4\\s3e\\makefile_builder\\templates\\wp8_csproj_user.pyc'
p229
F1412178848.0
sS'c:\\marmalade\\7.4\\s3e\\makefile_builder\\plugins\\win32_vc6.pyc'
p230
F1412178848.0
sS'c:\\marmalade\\7.4\\s3e\\makefile_builder\\plugins\\s3e_vc6.pyc'
p231
F1412178848.0
sS'c:\\marmalade\\7.4\\s3e\\makefile_builder\\templates\\vc10_user.pyc'
p232
F1412178848.0
sS'c:\\marmalade\\7.4\\s3e\\makefile_builder\\docs\\deprecated.defines.txt'
p233
F1412177256.0
sS'c:\\marmalade\\7.4\\s3e\\makefile_builder\\templates\\wp81_csproj_user.pyc'
p234
F1412178848.0
sS'c:\\marmalade\\7.4\\s3e\\makefile_builder\\templates\\ws81_ext_sln.pyc'
p235
F1412178848.0
sS'c:\\marmalade\\7.4\\s3e\\makefile_builder\\templates\\make.py'
p236
F1412177258.0
sS'c:\\marmalade\\7.4\\s3e\\makefile_builder\\plugins\\wp81_wp81.pyc'
p237
F1412178848.0
sS'c:\\marmalade\\7.4\\s3e\\makefile_builder\\plugins\\s3e_qmake.pyc'
p238
F1414008465.7594974
sS'c:\\marmalade\\7.4\\s3e\\makefile_builder\\templates\\mips_linker_script'
p239
F1412177258.0
sS'c:\\marmalade\\7.4\\s3e\\makefile_builder\\plugins\\deploy.pyc'
p240
F1412178848.0
sS'c:\\marmalade\\7.4\\s3e\\makefile_builder\\plugins\\ws81_ws81.pyc'
p241
F1412178848.0
sS'c:\\marmalade\\7.4\\s3e\\makefile_builder\\mkb.py'
p242
F1412177256.0
sS'c:\\marmalade\\7.4\\s3e\\makefile_builder\\docs\\options.txt'
p243
F1412177256.0
sS'c:\\marmalade\\7.4\\s3e\\makefile_builder\\mkb_parser.pyc'
p244
F1412178848.0
sS'c:\\marmalade\\7.4\\s3e\\makefile_builder\\templates\\qmake_user.py'
p245
F1412177258.0
sS'c:\\marmalade\\7.4\\s3e\\makefile_builder\\docs\\mkb.defines.txt'
p246
F1412177256.0
sS'c:\\marmalade\\7.4\\s3e\\makefile_builder\\deployment.pyc'
p247
F1412178848.0
sS'c:\\marmalade\\7.4\\s3e\\makefile_builder\\plugins\\wp8_wp8.pyc'
p248
F1412178848.0
sS'c:\\marmalade\\7.4\\s3e\\makefile_builder\\plugins\\linux_scons.pyc'
p249
F1412178848.0
sS'c:\\marmalade\\7.4\\s3e\\makefile_builder\\plugins\\s3e_web.pyc'
p250
F1412178848.0
sS'c:\\marmalade\\7.4\\s3e\\makefile_builder\\plugins\\S3EEmitter.pyc'
p251
F1412178848.0
sS'c:\\marmalade\\7.4\\s3e\\makefile_builder\\plugins\\Win8Emitter.pyc'
p252
F1412178848.0
sS'c:\\marmalade\\7.4\\s3e\\makefile_builder\\templates\\xcode4_arm.xcscheme'
p253
F1412177258.0
sS'c:\\marmalade\\7.4\\s3e\\makefile_builder\\plugins\\vc6_utils.pyc'
p254
F1412178848.0
sS'c:\\marmalade\\7.4\\s3e\\makefile_builder\\templates\\wp8_vcxproj.pyc'
p255
F1412178848.0
sS'c:\\marmalade\\7.4\\s3e\\makefile_builder\\templates\\xcode4.xcscheme'
p256
F1412177258.0
sS'c:\\marmalade\\7.4\\s3e\\makefile_builder\\plugins\\MakeEmitter.pyc'
p257
F1412178848.0
sS'c:\\marmalade\\7.4\\s3e\\makefile_builder\\plugins\\java.pyc'
p258
F1412178848.0
sS'c:\\marmalade\\7.4\\s3e\\makefile_builder\\plugins\\XcodeEmitter.pyc'
p259
F1414008465.367475
sS'c:\\marmalade\\7.4\\s3e\\makefile_builder\\plugins\\XcodeEmitter.py'
p260
F1412177256.0
sS'c:\\marmalade\\7.4\\s3e\\makefile_builder\\mkb_globals.pyc'
p261
F1412178848.0
sS'c:\\marmalade\\7.4\\s3e\\makefile_builder\\tool_launcher.exe'
p262
F1412177658.0
sS'c:\\marmalade\\7.4\\s3e\\makefile_builder\\mkb_util.pyc'
p263
F1412178848.0
sS'c:\\marmalade\\7.4\\s3e\\makefile_builder\\plugins\\xcode4_schememanagement.pyc'
p264
F1414008465.4624805
sS'c:\\marmalade\\7.4\\s3e\\makefile_builder\\templates\\ws8_sln.pyc'
p265
F1412178848.0
sS'c:\\marmalade\\7.4\\s3e\\makefile_builder\\templates\\win32_sln.pyc'
p266
F1412178848.0
sS'c:\\marmalade\\7.4\\s3e\\makefile_builder\\templates\\wp81_ext_csproj.pyc'
p267
F1412178848.0
sS'c:\\marmalade\\7.4\\s3e\\makefile_builder\\plugins\\s3e_wp81.pyc'
p268
F1412178848.0
sS'c:\\marmalade\\7.4\\s3e\\makefile_builder\\plugins\\s3e_wp8.pyc'
p269
F1412178848.0
sS'c:\\marmalade\\7.4\\s3e\\makefile_builder\\templates\\qmake.py'
p270
F1412177258.0
sS'c:\\marmalade\\7.4\\s3e\\makefile_builder\\templates\\gdb_start.txt'
p271
F1412177258.0
sS'c:\\marmalade\\7.4\\s3e\\makefile_builder\\templates'
p272
F1414007180.6855614
sS'c:\\marmalade\\7.4\\s3e\\makefile_builder\\templates\\ws8_ext_csproj.pyc'
p273
F1412178848.0
sS'c:\\marmalade\\7.4\\s3e\\makefile_builder\\templates\\win8_csproj_user.pyc'
p274
F1412178848.0
sS'c:\\marmalade\\7.4\\s3e\\makefile_builder\\templates\\vc7_suo.pyc'
p275
F1412178848.0
sS'c:\\marmalade\\7.4\\s3e\\makefile_builder\\plugins\\VisualStudioEmitter.pyc'
p276
F1412178848.0
sS'c:\\marmalade\\7.4\\s3e\\makefile_builder\\templates\\linker_script'
p277
F1412177258.0
sS'c:\\marmalade\\7.4\\s3e\\makefile_builder\\docs\\deprecated.options.txt'
p278
F1412177256.0
sS'c:\\marmalade\\7.4\\s3e\\makefile_builder\\plugins\\s3e_xcode.pyc'
p279
F1414008465.9015057
sS'c:\\marmalade\\7.4\\s3e\\makefile_builder\\plugins\\s3e_ws8.pyc'
p280
F1412178848.0
sS'c:\\marmalade\\7.4\\s3e\\makefile_builder\\templates\\xcode4_DeployTool.xcscheme'
p281
F1412177258.0
sS'c:\\marmalade\\7.4\\s3e\\makefile_builder\\templates\\ws8_csproj_user.pyc'
p282
F1412178848.0
sS'c:\\marmalade\\7.4\\s3e\\makefile_builder\\plugins\\osx_scons.pyc'
p283
F1412178848.0
sS'c:\\marmalade\\7.4\\s3e\\makefile_builder\\templates\\ws81_csproj.pyc'
p284
F1412178848.0
sS'c:\\marmalade\\7.4\\s3e\\makefile_builder\\templates\\wp8_sln.pyc'
p285
F1412178848.0
sS'c:\\marmalade\\7.4\\s3e\\makefile_builder\\docs'
p286
F1414007180.7905674
sS'c:\\marmalade\\7.4\\s3e\\makefile_builder\\plugins\\ws8_ws8.pyc'
p287
F1412178848.0
sS'c:\\marmalade\\7.4\\s3e\\makefile_builder\\docs\\deployment_options.txt'
p288
F1412177256.0
sS'c:\\marmalade\\7.4\\s3e\\makefile_builder\\templates\\win32_vcxproj_filters.pyc'
p289
F1412178848.0
sS'c:\\marmalade\\7.4\\s3e\\makefile_builder\\templates\\win32_dsw.pyc'
p290
F1412178848.0
sS'c:\\marmalade\\7.4\\s3e\\makefile_builder\\plugins\\s3e_ws81.pyc'
p291
F1412178848.0
sS'c:\\marmalade\\7.4\\s3e\\makefile_builder\\plugins\\SConsEmitter.pyc'
p292
F1412178848.0
sS'c:\\marmalade\\7.4\\s3e\\makefile_builder\\templates\\wp81_vcxproj.pyc'
p293
F1412178848.0
sS'c:\\marmalade\\7.4\\s3e\\makefile_builder\\plugins\\win8_utils.pyc'
p294
F1412178848.0
sS'c:\\marmalade\\7.4\\s3e\\makefile_builder\\templates\\template.opt'
p295
F1412177258.0
sS'c:\\marmalade\\7.4\\s3e\\makefile_builder\\plugins\\vc7_utils.pyc'
p296
F1412178848.0
sS'c:\\marmalade\\7.4\\s3e\\makefile_builder\\templates\\win32_dsp.pyc'
p297
F1412178848.0
sS'c:\\marmalade\\7.4\\s3e\\makefile_builder\\plugins\\s3e_make.pyc'
p298
F1412178848.0
sS'c:\\marmalade\\7.4\\s3e\\makefile_builder\\templates\\rvct_linker_script'
p299
F1412177258.0
sS'c:\\marmalade\\7.4\\s3e\\makefile_builder\\templates\\win8_csproj.pyc'
p300
F1412178848.0
sS'c:\\marmalade\\7.4\\s3e\\makefile_builder\\templates\\xcode.py'
p301
F1412177258.0
sS'c:\\marmalade\\7.4\\s3e\\makefile_builder\\templates\\ws8_vcxproj.pyc'
p302
F1412178848.0
sS'c:\\marmalade\\7.4\\s3e\\makefile_builder\\templates\\wp81_csproj.pyc'
p303
F1412178848.0
sS'c:\\marmalade\\7.4\\s3e\\makefile_builder\\mkb_upstream.pyc'
p304
F1412178848.0
sS'c:\\marmalade\\7.4\\s3e\\makefile_builder\\templates\\win32_vcxproj.pyc'
p305
F1412178848.0
sS'c:\\marmalade\\7.4\\s3e\\makefile_builder\\templates\\ws8_csproj.pyc'
p306
F1412178848.0
sS'c:\\marmalade\\7.4\\s3e\\makefile_builder\\docs\\parse_options.pyc'
p307
F1412178848.0
sS'c:\\marmalade\\7.4\\s3e\\makefile_builder\\templates\\Info.plist'
p308
F1412177258.0
sS'c:\\marmalade\\7.4\\s3e\\makefile_builder\\templates\\wp81_sln.pyc'
p309
F1412178848.0
sS'c:\\marmalade\\7.4\\s3e\\makefile_builder\\templates\\ws81_csproj_user.pyc'
p310
F1412178848.0
sS'c:\\marmalade\\7.4\\s3e\\makefile_builder\\templates\\ws81_vcxproj.pyc'
p311
F1412178848.0
sccopy_reg
_reconstructor
p312
(cmkb_main
MkbFile
p313
c__builtin__
object
p314
Ntp315
Rp316
(dp317
g5
(lp318
sS'target_name'
p319
S'SlidingHomeC'
p320
sS'current_file'
p321
g125
sS'package_path'
p322
(lp323
sS'post_build'
p324
(lp325
(lp326
S'c:/marmalade/7.4/s3e/tools'
p327
aS'C:\\Marmalade\\7.4\\s3e\\python\\python.exe .\\process_map.py "$(TargetPath)"'
p328
aa(S'c:\\marmalade\\7.4\\s3e\\bin'
p329
S'"s3e_plink" -l "$(TargetPath)" '
p330
g156
tp331
asS'librarys'
p332
(lp333
g312
(cmkb_main
Library
p334
g314
Ntp335
Rp336
(dp337
S'name'
p338
S'vc6_compat.lib'
p339
sS'expand_name'
p340
I00
sS'include_spec_rvct_objs'
p341
(lp342
sS'include_all_objs'
p343
I00
sS'share_arm'
p344
I00
sS'arch'
p345
S'x86'
p346
sS'nodebug'
p347
I00
sg36
Nsbag312
(g334
g314
Ntp348
Rp349
(dp350
g338
S'iw2d'
p351
sg340
I01
sg341
(lp352
sg343
Nsg344
Nsg345
Nsg347
I00
sg36
Nsbag312
(g334
g314
Ntp353
Rp354
(dp355
g338
S'ATI_Compress_MT_VC7.lib'
p356
sg340
I00
sg341
g352
sg343
Nsg344
Nsg345
S'x86'
p357
sg347
I00
sg36
Nsbag312
(g334
g314
Ntp358
Rp359
(dp360
g338
S'iwgx'
p361
sg340
I01
sg341
g352
sg343
Nsg344
Nsg345
Nsg347
I00
sg36
Nsbag312
(g334
g314
Ntp362
Rp363
(dp364
g338
S'iwgl'
p365
sg340
I01
sg341
g352
sg343
Nsg344
Nsg345
Nsg347
I00
sg36
Nsbag312
(g334
g314
Ntp366
Rp367
(dp368
g338
S'iwutil'
p369
sg340
I01
sg341
g352
sg343
Nsg344
Nsg345
Nsg347
I00
sg36
Nsbag312
(g334
g314
Ntp370
Rp371
(dp372
g338
S'jpeg'
p373
sg340
I01
sg341
g352
sg343
Nsg344
Nsg345
Nsg347
I00
sg36
Nsbag312
(g334
g314
Ntp374
Rp375
(dp376
g338
S'z'
p377
sg340
I01
sg341
g352
sg343
Nsg344
Nsg345
Nsg347
I00
sg36
Nsbag312
(g334
g314
Ntp378
Rp379
(dp380
g338
S'png'
p381
sg340
I01
sg341
g352
sg343
Nsg344
Nsg345
Nsg347
I00
sg36
Nsbag312
(g334
g314
Ntp382
Rp383
(dp384
g338
S'iwgeom'
p385
sg340
I01
sg341
g352
sg343
Nsg344
Nsg345
Nsg347
I00
sg36
Nsbag312
(g334
g314
Ntp386
Rp387
(dp388
g338
S'iwresmanager'
p389
sg340
I01
sg341
g352
sg343
Nsg344
Nsg345
Nsg347
I00
sg36
Nsbag312
(g334
g314
Ntp390
Rp391
(dp392
g338
S'iwgxfont'
p393
sg340
I01
sg341
g352
sg343
Nsg344
Nsg345
Nsg347
I00
sg36
Nsbag312
(g334
g314
Ntp394
Rp395
(dp396
g338
S'tiniconv'
p397
sg340
I01
sg341
g352
sg343
Nsg344
Nsg345
Nsg347
I00
sg36
Nsbag312
(g334
g314
Ntp398
Rp399
(dp400
g338
S's3e_cpp'
p401
sg340
I01
sg341
g342
sg343
I00
sg344
I00
sg345
Nsg347
I00
sg36
Nsbag312
(g334
g314
Ntp402
Rp403
(dp404
g338
S's3e'
p405
sg340
I01
sg341
(lp406
S'iwcrt.o'
p407
asg343
I00
sg344
I00
sg345
Nsg347
I00
sg36
Nsbag312
(g334
g314
Ntp408
Rp409
(dp410
g338
g53
sg340
I01
sg341
g342
sg343
I00
sg344
I00
sg345
S'x86'
p411
sg347
I01
sg36
Nsbag312
(g334
g314
Ntp412
Rp413
(dp414
g338
g53
sg340
I01
sg341
g342
sg343
I00
sg344
I00
sg345
S'!x86'
p415
sg347
I01
sg36
Nsbag312
(g334
g314
Ntp416
Rp417
(dp418
g338
S'stdc++'
p419
sg340
I00
sg341
g342
sg343
I00
sg344
I00
sg345
S'mips'
p420
sg347
I00
sg36
Nsbag312
(g334
g314
Ntp421
Rp422
(dp423
g338
S'c'
p424
sg340
I00
sg341
g342
sg343
I00
sg344
I00
sg345
S'mips'
p425
sg347
I00
sg36
Nsbag312
(g334
g314
Ntp426
Rp427
(dp428
g338
S'm'
p429
sg340
I00
sg341
g342
sg343
I00
sg344
I00
sg345
S'mips'
p430
sg347
I00
sg36
Nsbag312
(g334
g314
Ntp431
Rp432
(dp433
g338
S'gcc'
p434
sg340
I00
sg341
g342
sg343
I00
sg344
I00
sg345
S'mips'
p435
sg347
I00
sg36
Nsbag312
(g334
g314
Ntp436
Rp437
(dp438
g338
S'stdc++'
p439
sg340
I00
sg341
g342
sg343
I00
sg344
I00
sg345
S'gcc_x86_android'
p440
sg347
I00
sg36
Nsbag312
(g334
g314
Ntp441
Rp442
(dp443
g338
g424
sg340
I00
sg341
g342
sg343
I00
sg344
I00
sg345
S'gcc_x86_android'
p444
sg347
I00
sg36
Nsbag312
(g334
g314
Ntp445
Rp446
(dp447
g338
g429
sg340
I00
sg341
g342
sg343
I00
sg344
I00
sg345
S'gcc_x86_android'
p448
sg347
I00
sg36
Nsbag312
(g334
g314
Ntp449
Rp450
(dp451
g338
g434
sg340
I00
sg341
g342
sg343
I00
sg344
I00
sg345
S'gcc_x86_android'
p452
sg347
I00
sg36
NsbasS'library_paths'
p453
(lp454
g312
(cmkb_main
LibraryPath
p455
g314
Ntp456
Rp457
(dp458
S'expand_path'
p459
I01
sg338
S'c:/marmalade/7.4/modules/iw2d'
p460
sbag312
(g455
g314
Ntp461
Rp462
(dp463
g459
I00
sg338
S'c:/marmalade/7.4/modules/iwgx/atitools'
p464
sbag312
(g455
g314
Ntp465
Rp466
(dp467
g459
I01
sg338
S'c:/marmalade/7.4/modules/iwgx'
p468
sbag312
(g455
g314
Ntp469
Rp470
(dp471
g459
I01
sg338
S'c:/marmalade/7.4/modules/iwgl'
p472
sbag312
(g455
g314
Ntp473
Rp474
(dp475
g459
I01
sg338
S'c:/marmalade/7.4/modules/iwutil'
p476
sbag312
(g455
g314
Ntp477
Rp478
(dp479
g459
I01
sg338
S'c:/marmalade/7.4/modules/third_party/libjpeg'
p480
sbag312
(g455
g314
Ntp481
Rp482
(dp483
g459
I01
sg338
S'c:/marmalade/7.4/modules/third_party/zlib'
p484
sbag312
(g455
g314
Ntp485
Rp486
(dp487
g459
I01
sg338
S'c:/marmalade/7.4/modules/third_party/libpng'
p488
sbag312
(g455
g314
Ntp489
Rp490
(dp491
g459
I01
sg338
S'c:/marmalade/7.4/modules/iwgeom'
p492
sbag312
(g455
g314
Ntp493
Rp494
(dp495
g459
I01
sg338
S'c:/marmalade/7.4/modules/iwresmanager'
p496
sbag312
(g455
g314
Ntp497
Rp498
(dp499
g459
I01
sg338
S'c:/marmalade/7.4/modules/iwgxfont'
p500
sbag312
(g455
g314
Ntp501
Rp502
(dp503
g459
I01
sg338
S'c:/marmalade/7.4/modules/third_party/tiniconv'
p504
sbag312
(g455
g314
Ntp505
Rp506
(dp507
g459
I01
sg338
S'c:/marmalade/7.4/s3e'
p508
sbasS'macros'
p509
(dp510
S'IW_USE_CALLSTACK'
p511
NsS'IW_MKF_IWGEOM'
p512
NsS'I3D_PLATFORM_S3E'
p513
NsS'IW_TRACE_CHANNEL_PVRTEXTOOL_VERBOSE'
p514
S'2'
p515
sS'IW_MKF_LIBJPEG'
p516
NsS'I3D_OS_S3E'
p517
NsS'IW_MKF_PVRTEXTOOL'
p518
NsS'IW_MKF_TINICONV'
p519
NsS'IW_APP_VERSION'
p520
S'"1.0"'
p521
sS'__S3E__'
p522
NsS'IW_MKF_IWRESMANAGER'
p523
NsS'IW_MKF_IWUTIL'
p524
NsS'IW_PLATFORM_S3E'
p525
NsS'IW_ASSERTION_CHANNEL_2D'
p526
S'1'
p527
sS'IW_APP_NAME'
p528
S'"SlidingHomeC"'
p529
sS'IW_MKF_S3E_DEFAULT'
p530
NsS'IW_MKF_IWGXFONT'
p531
NsS'IW_MKF_IWTWEEN'
p532
NsS'IW_MKF_ZLIB'
p533
NsS'IW_MKF_IWGX'
p534
NsS'IW_MKF_IW2DSCENEGRAPH'
p535
NsS'IW_MKF_SOUNDENGINE'
p536
NsS'IW_USE_ASSERTIONS'
p537
NsS'_CRT_SECURE_NO_DEPRECATE'
p538
NsS'IW_MKF_IWGL'
p539
NsS'IW_MKF_LIBPNG'
p540
NsS'IW_TRACE_CHANNEL_IW_2DSCENEGRAPH'
p541
g527
sS'IW_DEBUG'
p542
NsS'IW_USE_TRACING'
p543
NsS'IW_ASSERTION_CHANNEL_IW_2DSCENEGRAPH'
p544
g527
sS'IW_TRACE_CHANNEL_PVRTEXTOOL'
p545
g527
sS'IW_SDK'
p546
NsS'S3E_INCLUDE_LEGACY'
p547
NsS'IW_MKF_IW2DSCENEGRAPHCORE'
p548
NsS'IW_MKF_IW2D'
p549
NsS'IW_ASSERTION_CHANNEL_PVRTEXTOOL'
p550
g527
ssS'done_warnings'
p551
(dp552
sS'subprojects'
p553
(dp554
g182
S'zlib'
p555
sg175
S's3e-default.mkf'
p556
sg180
S'libjpeg'
p557
sg177
S'iwgx'
p558
sg188
S'iw2dscenegraph'
p559
sg189
S'../iw2dscenegraphcore'
p560
sg183
S'iwgeom'
p561
sg179
S'iwutil'
p562
sg187
S'tiniconv'
p563
sg178
S'iwgl'
p564
sg176
S'iw2d'
p565
sg186
S'iwgxfont'
p566
sg184
S'iwresmanager'
p567
sg181
S'libpng'
p568
sg190
S'iwtween'
p569
sg191
S'modules/SoundEngine'
p570
sg185
S'PVRTexTool'
p571
ssS'deployments'
p572
(dp573
S'Default'
p574
g312
(cdeployment
Deployment
p575
g314
Ntp576
Rp577
(dp578
S'got_version'
p579
I1
sS'assets'
p580
g574
sS'mkb'
p581
g316
sS'target'
p582
Nsg345
(lp583
sS'options'
p584
(dp585
S'iphone-link-lib'
p586
(lp587
sS'game-icf'
p588
NsS'android-tm'
p589
NsS'winmobile-icon32'
p590
NsS'ws8-logo-image150x150'
p591
NsS'wp81-logo-image150x150'
p592
NsS'ws81-product-version'
p593
NsS'osx-ext-dll'
p594
(lp595
S'c:/marmalade/7.4/extensions/pvrtextool/lib/osx/libPVRTexTool.dylib'
p596
asS'iphone-provisioning-profile'
p597
NsS'win32-icon'
p598
NsS'ws8-splash-screen-image620x300'
p599
NsS'wp81-extra-pri'
p600
(lp601
sS'ws8-ext-capabilities'
p602
(lp603
sS'android-icon-hdpi'
p604
NsS'iphone-ipad-only'
p605
NsS'iphone-splash-full-orient'
p606
NsS'wp8-tile-fliptemplate-supports-large'
p607
NsS'iphone-show-status-bar'
p608
NsS'roku-requires-mkv'
p609
NsS'long-caption'
p610
NsS'android-pkgname'
p611
NsS'wp81-publisher-display-name'
p612
NsS'blackberry-permissions-read-device-identifying-information'
p613
NsS'ws81-certificate-end-date'
p614
NsS'psp-dlgcontentid'
p615
NsS'iphone-minimum-ios-version'
p616
NsS'target-folder'
p617
NsS'tizen-dist1-CA-path'
p618
NsS'symbian-icon2-format'
p619
NsS'tizen-author-key'
p620
NsS'firefoxos-icon-128X128'
p621
NsS'iphone-region'
p622
NsS'uiq3-icon3-mask'
p623
NsS'brew-encoding'
p624
NsS'android-x86'
p625
NsS'nds-initialcode'
p626
NsS'iphone-persistent-wifi'
p627
NsS'psp-snd0'
p628
NsS'roku-icon-focus-hd'
p629
NsS'osx-appid'
p630
NsS'winmobile-install-folder'
p631
NsS'android-external-res'
p632
(lp633
sS'ws8-product-version'
p634
NsS'brew-priviledges'
p635
NsS'iphone-icon-ipad-search'
p636
NsS'iphone-icon-ipad'
p637
NsS'iphone-skip-icon-generation'
p638
NsS'roku-hidden'
p639
NsS'psp-titlename'
p640
NsS'wp81-product-version'
p641
NsS'symbian-icon1-mask'
p642
NsS'psp-parentallevel'
p643
NsS'iphone-launch-storyboard'
p644
NsS'splashscreen-use-all'
p645
NsS'wp8-author'
p646
NsS'symbian-disable-ecompxl'
p647
NsS'splashscreen-auto-onblack'
p648
NsS'iphone-icon-dir'
p649
NsS'iphone-icon-extra'
p650
NsS'win32-ext-dll'
p651
(lp652
S'c:/marmalade/7.4/extensions/pvrtextool/lib/win32/PVRTexTool.dll'
p653
asS'iphone-development-key'
p654
NsS'winmobile-icon48'
p655
NsS'android-unsigned'
p656
NsS'osx-appstore-category'
p657
NsS'version-revision'
p658
NsS'roku-icon-focus-sd'
p659
NsS'android-keystore'
p660
NsS'winmobile-png90'
p661
NsS'iphone-icon-ipad-high-res'
p662
NsS'iphone-disable-ipad'
p663
NsS'ws81-splash-screen-background'
p664
NsS'wp8-ext-capabilities'
p665
(lp666
sS'brew-icon-large'
p667
NsS'symbian-icon1-mask-black'
p668
NsS'iphone-nosign'
p669
NsS'iphone-bundle-localisations'
p670
NsS'winmobile-png60'
p671
NsS'blackberry-permissions-access-shared'
p672
NsS'blackberry-author'
p673
NsS'android-icon-xxxhdpi'
p674
NsS'olddeploytoolstyle'
p675
NsS'android_icon_gallery'
p676
NsS'wp81-splash-screen-background'
p677
NsS'winmobile-cab-compress'
p678
NsS'iphone-info-plist'
p679
NsS'ws81-ext-managed-dll'
p680
(lp681
sS'ws8-distribution-pfx-password'
p682
NsS'symbian-key'
p683
NsS'app-icf'
p684
NsS'blackberry-storepass'
p685
NsS'wp8-tile-fliptemplate-back-title'
p686
NsS'brew-compress-loader'
p687
NsS'win32-pref-windowposy'
p688
NsS'win32-pref-windowposx'
p689
NsS'roku-requires-audiometadata'
p690
NsS'wp8-exclude-low-mem'
p691
NsS'wp8-tile-fliptemplate-title'
p692
NsS'iphone-icon-ipad-search-high-res'
p693
NsS'iphone-link-libdir'
p694
(lp695
sS'wp81-ext-capabilities'
p696
(lp697
sS'blackberry-permissions-read-geolocation'
p698
NsS'ws81-ext-device-capabilities'
p699
(lp700
sS'tizen-signed'
p701
NsS'android-extra-application-manifest'
p702
(lp703
sS'ws8-ext-native-dll'
p704
(lp705
sS'symbian-icon2-mask'
p706
NsS'iphone-launch-extra'
p707
NsS'webos-memory'
p708
NsS'android-keypass'
p709
NsS'name'
p710
NsS'uiq3-icon2-format'
p711
NsS'roku-splash-screen-sd'
p712
NsS'auto-derbh'
p713
NsS'roku-icon-side-sd'
p714
NsS'android-external-assets'
p715
(lp716
sS'nds-publicsavedatasize'
p717
NsS'splashscreen'
p718
NsS'brew-mif'
p719
NsS'iphone-icon-settings-high-res'
p720
NsS'android-manifest'
p721
NsS'ws81-splash-screen-image620x300'
p722
NsS'wp81-product-name'
p723
NsS's3e-compression'
p724
NsS'tizen-author-password'
p725
NsS'wp8-tile-fliptemplate-back-content'
p726
NsS'blackberry-extra-descriptor'
p727
(lp728
sS'symbian-icon1'
p729
NsS'symbian-icon2'
p730
NsS'android-extra-styles-file'
p731
NsS'wp81-publisher-id'
p732
NsS'nds-bannertitle-jp'
p733
NsS'wp81-logo-image44x44'
p734
NsS'osx-sign-for-store'
p735
NsS'symbian7-uid'
p736
NsS'wp8-tile-fliptemplate-large-back-content'
p737
NsS'wp81-phone-publisher-id'
p738
NsS'nds-bannertitle-cn'
p739
NsS'iphone-distribution-key'
p740
NsS'android-icon-gallery'
p741
NsS'blackberry-keystore'
p742
NsS'ws8-extra-res'
p743
(lp744
sS'caption'
p745
NsS'android-extra-manifest'
p746
(lp747
sS'wp81-ext-sdk-ref'
p748
(lp749
sS'android-icon-xxhdpi'
p750
NsS'version-minor'
p751
NsS'iphone-skip-launch-generation'
p752
NsS'iphone-link-libdirs'
p753
(lp754
sS'iphone-icon-large'
p755
NsS'symbian-keypwd'
p756
NsS'symbian8-uid'
p757
NsS'symbian-cert-key'
p758
NsS'winmobile-ampd-part-number'
p759
NsS'arch'
p760
NsS'nds-romheadertemplate'
p761
NsS'webos-icon'
p762
NsS'wp81-ext-device-capabilities'
p763
(lp764
sS'psp-dlgprotectdocument'
p765
NsS'ws8-splash-screen-background'
p766
NsS'android-icon-mdpi'
p767
NsS'nds-icon'
p768
NsS'ws8-custom-manifest-fill'
p769
NsS'iphone-development-cert'
p770
NsS'blackberry-phone-icon'
p771
NsS'iphone-enable-4inch-retina'
p772
NsS'ws8-custom-manifest'
p773
NsS'version-major'
p774
NsS'wp8-genre-isgame'
p775
NsS'uiq3-uid'
p776
NsS'iphone-splash-retina-generate'
p777
NsS'tizen-hw-acceleration'
p778
NsS'iphone_bundle_localisations'
p779
NsS'tizen-dist1-key'
p780
NsS'wp81-custom-manifest-fill'
p781
NsS'wp8-custom-manifest'
p782
NsS'nds-bannertitle-ge'
p783
NsS'iphone-sign-for-distribution'
p784
NsS'wp8-tile-fliptemplate-medium-back-image'
p785
NsS'wp8-publisher-id'
p786
NsS'icon'
p787
NsS'wp8-exclude-wxga'
p788
NsS'wp81-identity-name'
p789
NsS'uiq3-icon2-mask'
p790
NsS'iphone-splashscreen-portrait'
p791
NsS'iphone-icon-high-res'
p792
NsS'ws81-distribution-pfx-password'
p793
NsS'playbook-author'
p794
NsS'android-icon-xhdpi'
p795
NsS'linux-ext-lib'
p796
(lp797
sS'blackberry-permissions-access-internet'
p798
NsS'wp8-exclude-720p'
p799
NsS'lgtv-use-drm'
p800
NsS'symbian-platsecflags'
p801
NsS'ws8-description'
p802
NsS'blackberry-playbook-icon'
p803
NsS'copyright'
p804
NsS'win32-gles-directory'
p805
NsS'version'
p806
(lp807
I0
aI0
aI0
asS'iphone-uiviewcontroller-based-status-bar'
p808
NsS'ws81-logo-image150x150'
p809
NsS'osx-signing-identity-app'
p810
NsS'tizen-project-url'
p811
NsS'symbian-icon-svg'
p812
NsS'android-aliasname'
p813
NsS'psp-dlgmanual'
p814
NsS'brew-uid'
p815
NsS'symbian-locationsupport'
p816
NsS'wp81-logo-image50x50'
p817
NsS'ws8-ext-managed-dll'
p818
(lp819
sS'nds-bannertitle-it'
p820
NsS'ws81-custom-manifest-fill'
p821
NsS'ws8-ext-sdk-manifest-part'
p822
(lp823
sS'uiq3-icon1-mask'
p824
NsS'winmobile-icon16'
p825
NsS'ws8-product-name'
p826
NsS'blackberry-cskpass'
p827
NsS'winmobile-start-menu-folder'
p828
NsS'brew-clsid'
p829
NsS'roku-requires-bluetooth'
p830
NsS'ws8-ext-device-capabilities'
p831
(lp832
sS'blackberry-permissions-use-camera'
p833
NsS'ws81-extra-pri'
p834
(lp835
sS'iphone-prerendered-icon'
p836
NsS'iphone-appid'
p837
NsS'ws8-identity-name'
p838
NsS'tizen-dist2-CA-path'
p839
NsS'android-external-jars'
p840
(lp841
sS'winmobile-icon64'
p842
NsS'blackberry-permissions-post-notification'
p843
NsS'winmobile-setup-dll'
p844
NsS'firefoxos-manifest'
p845
NsS'win8-winrt-extra-res'
p846
(lp847
sS'wp81-ext-sdk-manifest-part'
p848
(lp849
sS'symbian9-uid'
p850
NsS'iphone-icon-ipad-ios7'
p851
NsS'winmobile-trace-file'
p852
NsS'roku-splash-color'
p853
NsS'psp-appversion'
p854
NsS'ws8-publisher-id'
p855
NsS'android-supports-gl-texture'
p856
(lp857
sS'winmobile-png45'
p858
NsS'wp81-extra-res'
p859
(lp860
sS'android-storepass'
p861
NsS'osx-signing-identity-inst'
p862
NsS'android-custom-activity'
p863
NsS'psp-discversion'
p864
NsS'wp81-ext-managed-dll'
p865
(lp866
sS'psp-copyright'
p867
NsS'embed-icf'
p868
NsS'tizen-manifest'
p869
NsS'osx-icon'
p870
NsS'webos-appinfo'
p871
NsS'psp-dlghealthwarning'
p872
NsS'webos-appid'
p873
NsS'roku-icon-side-hd'
p874
NsS'iphone-icon-ipad-search-high-res-ios7'
p875
NsS'ws81-ext-sdk-manifest-part'
p876
(lp877
sS'loader_name_prefix'
p878
NsS'iphone-launch-dir'
p879
NsS'nds-titlename'
p880
NsS'ws81-logo-image50x50'
p881
NsS'wp81-custom-manifest'
p882
NsS'osx-entitlements-plist'
p883
NsS'psp-dlgicon0'
p884
NsS'winmobile-nouninstall'
p885
NsS'psp-discid'
p886
NsS'tizen-dist2-password'
p887
NsS'ws8-ext-sdk-ref'
p888
(lp889
sS'iphone-extra-string'
p890
(lp891
sS'version-string'
p892
NsS'iphone-icon-high-res-ios7'
p893
NsS'blackberry-permissions-record-audio'
p894
NsS'ws8-certificate-end-date'
p895
NsS'tizen-so'
p896
(lp897
sS'wp8-tile-fliptemplate-small-image'
p898
NsS'playbook-authorid'
p899
NsS'iphone-signing-identity'
p900
NsS'roku-persist-quota'
p901
NsS'nds-bannertitle-fr'
p902
NsS'ws8-distribution-pfx'
p903
NsS'ws8-publisher-display-name'
p904
NsS'brew-icon-small'
p905
NsS'psp-dlgpic2'
p906
NsS'psp-dlgpic0'
p907
NsS'psp-pic0'
p908
NsS'psp-pic1'
p909
NsS'win32-pref-windowtitle'
p910
NsS'psp-icon0'
p911
NsS'psp-icon1'
p912
NsS'ws81-identity-name'
p913
NsS'winmobile-icon'
p914
NsS'iphone-no-splash'
p915
NsS'iphone-splash'
p916
NsS'iphone-app-fonts'
p917
NsS'wp8-ext-native-dll'
p918
(lp919
sS'wp81-splash-screen-image480x800'
p920
NsS'ws81-distribution-cer'
p921
NsS'iphone-backgroundmode-audio'
p922
NsS'uiq3-icon2'
p923
NsS'uiq3-icon3'
p924
NsS'uiq3-icon1'
p925
NsS'uiq3-icon1-format'
p926
NsS'ws8-logo-image50x50'
p927
NsS'symbian-icon2-mask-black'
p928
NsS'symbian-run-on-install'
p929
NsS'wp81-description'
p930
NsS'ws81-publisher-display-name'
p931
NsS'firefoxos-xulrunner'
p932
NsS'symbian-soundrecordsupport'
p933
NsS'nds-bannertitle-sp'
p934
NsS'psp-producer'
p935
NsS'iphone-apple-wwdr-cert'
p936
NsS'android-icon-nonstandard'
p937
NsS'win32-pref-processtitle'
p938
NsS'nds-bannertitle-hn'
p939
NsS'tizen-dist2-key'
p940
NsS'brew-depends'
p941
NsS'ws81-custom-manifest'
p942
NsS'iphone-icon-ipad-search-ios7'
p943
NsS'brew-icon-medium'
p944
NsS'iphone-bundle-url-name'
p945
NsS'wp8-tile-fliptemplate-large-front-image'
p946
NsS'tizen-dist2-CA-root-path'
p947
NsS'ws81-description'
p948
NsS'uiq3-icon3-format'
p949
NsS'ws81-logo-image30x30'
p950
NsS'win8-phone-extra-res'
p951
(lp952
sS'iphone-signing-host'
p953
NsS'tizen-icon'
p954
NsS'osx-info-plist'
p955
NsS'symbian-icon1-format'
p956
NsS'win8-store-extra-res'
p957
(lp958
sS'blackberry-authorid'
p959
NsS'ws81-publisher-id'
p960
NsS'ws81-distribution-pfx'
p961
NsS'wp8-description'
p962
NsS'iphone-link-opts'
p963
(lp964
sS'ws81-ext-sdk-ref'
p965
(lp966
sS'roku-splash-min-time'
p967
NsS'wp8-tile-fliptemplate-medium-front-image'
p968
NsS'provider'
p969
NsS'playbook-keystore'
p970
NsS'tizen-appid'
p971
NsS'wp8-extra-res'
p972
(lp973
sS'symbian-osexecsupport'
p974
NsS'android-install-location'
p975
NsS'nds-privatesavedatasize'
p976
NsS'playbook-storepass'
p977
NsS'android-icon-ldpi'
p978
NsS'manufacturer'
p979
NsS'itunes-artwork'
p980
NsS'iphone-extra-sections'
p981
NsS'ws81-product-name'
p982
NsS'ws81-ext-native-dll'
p983
(lp984
sS'ws8-extra-pri'
p985
(lp986
sS'wp8-product-id'
p987
NsS'ws8-logo-image30x30'
p988
NsS'wp8-ext-managed-dll'
p989
(lp990
sS'iphone-splashscreen-landscape'
p991
NsS'symbian-maxheapsize'
p992
NsS'nds-makercode'
p993
NsS'priv-sign-key'
p994
NsS'networking'
p995
NsS'android-icon'
p996
NsS'iphone-icon-settings'
p997
NsS'wp81-phone-product-id'
p998
NsS'firefoxos-icon-60X60'
p999
NsS'iphone-distribution-cert'
p1000
NsS'android_extra_strings'
p1001
NsS'nds-bannertitle-en'
p1002
NsS'playbook-cskpass'
p1003
NsS'android-so'
p1004
(lp1005
sS'wp8-higher-mem'
p1006
NsS'wp8-ext-sdk-ref'
p1007
(lp1008
sS'wp8-fast-resume-mode'
p1009
NsS'roku-splash-screen-hd'
p1010
NsS'iphone-bundle-url-schemes'
p1011
NsS'roku-screensaver-private'
p1012
NsS'osx-extra-res'
p1013
(lp1014
sS'ws81-extra-res'
p1015
(lp1016
sS'playbook-icon'
p1017
NsS'uid'
p1018
NsS'pkguid-as-uid'
p1019
NsS'wp81-ext-native-dll'
p1020
(lp1021
sS'tizen-dist1-password'
p1022
NsS'roku-screensaver-title'
p1023
NsS'osx-minimum-osx-version'
p1024
NsS'symbian-cert'
p1025
NsS'iphone-icon'
p1026
NsS'ws81-ext-capabilities'
p1027
(lp1028
sS'ws8-distribution-cer'
p1029
NsS'playbook-access-shared'
p1030
NsS'iphone-icon-ipad-high-res-ios7'
p1031
NsS'iphone-link-libs'
p1032
(lp1033
sS'wp8-exclude-wvga'
p1034
NsS'assets'
p1035
NsS'wp8-tile-fliptemplate-large-back-image'
p1036
NsS'wp8-custom-manifest-fill'
p1037
NsS'pub-sign-key'
p1038
NsS'android-extra-strings'
p1039
NsS'tizen-author-CA-path'
p1040
Nssg338
g574
sbssS'platform'
p1041
S'S3E'
p1042
sg68
S'1.0'
p1043
sS'arcade_platform'
p1044
g4
sS'extensions'
p1045
(dp1046
sS'source_groups_tree'
p1047
(dp1048
S'(libpng)'
p1049
(dp1050
S'h'
p1051
(dp1052
S'c:/marmalade/7.4/modules/third_party/libpng/h/png.h'
p1053
(lp1054
I1
a(dp1055
asS'c:/marmalade/7.4/modules/third_party/libpng/h/pngconf.h'
p1056
(lp1057
I1
ag1055
assS'c:/marmalade/7.4/modules/third_party/libpng/libpng.mkf'
p1058
(lp1059
I1
a(dp1060
assS'(libjpeg)'
p1061
(dp1062
g1051
(dp1063
S'c:/marmalade/7.4/modules/third_party/libjpeg/h/jerror.h'
p1064
(lp1065
I1
a(dp1066
asS'c:/marmalade/7.4/modules/third_party/libjpeg/h/jmemsys.h'
p1067
(lp1068
I1
ag1066
asS'c:/marmalade/7.4/modules/third_party/libjpeg/h/jchuff.h'
p1069
(lp1070
I1
ag1066
asS'c:/marmalade/7.4/modules/third_party/libjpeg/h/jpeglib.h'
p1071
(lp1072
I1
ag1066
asS'c:/marmalade/7.4/modules/third_party/libjpeg/h/cdjpeg.h'
p1073
(lp1074
I1
ag1066
asS'c:/marmalade/7.4/modules/third_party/libjpeg/h/jinclude.h'
p1075
(lp1076
I1
ag1066
asS'c:/marmalade/7.4/modules/third_party/libjpeg/h/jconfig.h'
p1077
(lp1078
I1
ag1066
asS'c:/marmalade/7.4/modules/third_party/libjpeg/h/cderror.h'
p1079
(lp1080
I1
ag1066
asS'c:/marmalade/7.4/modules/third_party/libjpeg/h/jdct.h'
p1081
(lp1082
I1
ag1066
asS'c:/marmalade/7.4/modules/third_party/libjpeg/h/jversion.h'
p1083
(lp1084
I1
ag1066
asS'c:/marmalade/7.4/modules/third_party/libjpeg/h/transupp.h'
p1085
(lp1086
I1
ag1066
asS'c:/marmalade/7.4/modules/third_party/libjpeg/h/jdhuff.h'
p1087
(lp1088
I1
ag1066
asS'c:/marmalade/7.4/modules/third_party/libjpeg/h/jpegint.h'
p1089
(lp1090
I1
ag1066
asS'c:/marmalade/7.4/modules/third_party/libjpeg/h/jmorecfg.h'
p1091
(lp1092
I1
ag1066
assS'c:/marmalade/7.4/modules/third_party/libjpeg/libjpeg.mkf'
p1093
(lp1094
I1
a(dp1095
assS'(tiniconv)'
p1096
(dp1097
S'c:/marmalade/7.4/modules/third_party/tiniconv/source/tiniconv_int.h'
p1098
(lp1099
I1
a(dp1100
asS'c:/marmalade/7.4/modules/third_party/tiniconv/tiniconv.mkf'
p1101
(lp1102
I1
a(dp1103
asS'c:/marmalade/7.4/modules/third_party/tiniconv/source/tiniconv.h'
p1104
(lp1105
I1
ag1100
assS'(SoundEngine)'
p1106
(dp1107
S'c:/users/user/desktop/slidinghome/modules/soundengine/h/IwSoundData.h'
p1108
(lp1109
I1
a(dp1110
asS'c:/users/user/desktop/slidinghome/modules/soundengine/source/IwSoundWAV.cpp'
p1111
(lp1112
I1
ag1110
asS'c:/users/user/desktop/slidinghome/modules/soundengine/source/IwSoundInst.cpp'
p1113
(lp1114
I1
ag1110
asS'c:/users/user/desktop/slidinghome/modules/soundengine/source/IwSoundSpec.cpp'
p1115
(lp1116
I1
ag1110
asS'c:/users/user/desktop/slidinghome/modules/soundengine/soundengine.mkf'
p1117
(lp1118
I1
a(dp1119
asS'c:/users/user/desktop/slidinghome/modules/soundengine/source/IwSoundManager.cpp'
p1120
(lp1121
I1
ag1110
asS'Docs'
p1122
(dp1123
S'c:/users/user/desktop/slidinghome/modules/soundengine/docs/iwsound.config.txt'
p1124
(lp1125
I1
ag1110
assS'c:/users/user/desktop/slidinghome/modules/soundengine/h/IwSoundWAV.h'
p1126
(lp1127
I1
ag1110
asS'c:/users/user/desktop/slidinghome/modules/soundengine/source/IwSoundParams.cpp'
p1128
(lp1129
I1
ag1110
asS'c:/users/user/desktop/slidinghome/modules/soundengine/h/IwSound.h'
p1130
(lp1131
I1
ag1110
asS'c:/users/user/desktop/slidinghome/modules/soundengine/source/IwResHandlerWAV.cpp'
p1132
(lp1133
I1
ag1110
asS'c:/users/user/desktop/slidinghome/modules/soundengine/h/IwSoundGroup.h'
p1134
(lp1135
I1
ag1110
asS'c:/users/user/desktop/slidinghome/modules/soundengine/h/IwSoundPCM.h'
p1136
(lp1137
I1
ag1110
asS'c:/users/user/desktop/slidinghome/modules/soundengine/h/IwResHandlerWAV.h'
p1138
(lp1139
I1
ag1110
asS'c:/users/user/desktop/slidinghome/modules/soundengine/h/IwSoundManager.h'
p1140
(lp1141
I1
ag1110
asS'c:/users/user/desktop/slidinghome/modules/soundengine/source/IwSoundGroup.cpp'
p1142
(lp1143
I1
ag1110
asS'c:/users/user/desktop/slidinghome/modules/soundengine/h/IwSoundSpec.h'
p1144
(lp1145
I1
ag1110
asS'c:/users/user/desktop/slidinghome/modules/soundengine/source/IwSoundData.cpp'
p1146
(lp1147
I1
ag1110
asS'c:/users/user/desktop/slidinghome/modules/soundengine/h/IwSoundParams.h'
p1148
(lp1149
I1
ag1110
asS'c:/users/user/desktop/slidinghome/modules/soundengine/source/IwSoundADPCM.cpp'
p1150
(lp1151
I1
ag1110
asS'c:/users/user/desktop/slidinghome/modules/soundengine/source/IwSoundPCM.cpp'
p1152
(lp1153
I1
ag1110
asS'c:/users/user/desktop/slidinghome/modules/soundengine/h/IwSoundInst.h'
p1154
(lp1155
I1
ag1110
asS'c:/users/user/desktop/slidinghome/modules/soundengine/h/IwSoundADPCM.h'
p1156
(lp1157
I1
ag1110
assS'source'
p1158
(dp1159
S'c:/Users/User/Desktop/SlidingHome/source/stringExtensions.h'
p1160
(lp1161
I1
a(dp1162
asS'c:/Users/User/Desktop/SlidingHome/source/level.h'
p1163
(lp1164
I1
ag1162
asS'c:/Users/User/Desktop/SlidingHome/source/game.h'
p1165
(lp1166
I1
ag1162
asS'c:/Users/User/Desktop/SlidingHome/source/audio.cpp'
p1167
(lp1168
I1
ag1162
asS'c:/Users/User/Desktop/SlidingHome/source/level.cpp'
p1169
(lp1170
I1
ag1162
asS'c:/Users/User/Desktop/SlidingHome/source/endScreen.h'
p1171
(lp1172
I1
ag1162
asS'c:/Users/User/Desktop/SlidingHome/source/levelSelect.cpp'
p1173
(lp1174
I1
ag1162
asS'c:/Users/User/Desktop/SlidingHome/source/pauseMenu.cpp'
p1175
(lp1176
I1
ag1162
asS'c:/Users/User/Desktop/SlidingHome/source/scene.cpp'
p1177
(lp1178
I1
ag1162
asS'c:/Users/User/Desktop/SlidingHome/source/grid.h'
p1179
(lp1180
I1
ag1162
asS'c:/Users/User/Desktop/SlidingHome/source/resources.cpp'
p1181
(lp1182
I1
ag1162
asS'c:/Users/User/Desktop/SlidingHome/source/endScreen.cpp'
p1183
(lp1184
I1
ag1162
asS'c:/Users/User/Desktop/SlidingHome/source/blankObject.cpp'
p1185
(lp1186
I1
ag1162
asS'c:/Users/User/Desktop/SlidingHome/source/pauseMenu.h'
p1187
(lp1188
I1
ag1162
asS'c:/Users/User/Desktop/SlidingHome/source/levelSelect.h'
p1189
(lp1190
I1
ag1162
asS'c:/Users/User/Desktop/SlidingHome/source/scene.h'
p1191
(lp1192
I1
ag1162
asS'c:/Users/User/Desktop/SlidingHome/source/resources.h'
p1193
(lp1194
I1
ag1162
asS'c:/Users/User/Desktop/SlidingHome/source/main.h'
p1195
(lp1196
I1
ag1162
asS'c:/Users/User/Desktop/SlidingHome/source/blankObject.h'
p1197
(lp1198
I1
ag1162
asS'c:/Users/User/Desktop/SlidingHome/source/game.cpp'
p1199
(lp1200
I1
ag1162
asS'c:/Users/User/Desktop/SlidingHome/source/mainMenu.h'
p1201
(lp1202
I1
ag1162
asS'c:/Users/User/Desktop/SlidingHome/source/grid.cpp'
p1203
(lp1204
I1
ag1162
asS'c:/Users/User/Desktop/SlidingHome/source/gameObject.cpp'
p1205
(lp1206
I1
ag1162
asS'c:/Users/User/Desktop/SlidingHome/source/input.h'
p1207
(lp1208
I1
ag1162
asS'c:/Users/User/Desktop/SlidingHome/source/audio.h'
p1209
(lp1210
I1
ag1162
asS'c:/Users/User/Desktop/SlidingHome/source/input.cpp'
p1211
(lp1212
I1
ag1162
asS'c:/Users/User/Desktop/SlidingHome/source/gameObject.h'
p1213
(lp1214
I1
ag1162
asS'c:/Users/User/Desktop/SlidingHome/source/mainMenu.cpp'
p1215
(lp1216
I1
ag1162
asS'c:/Users/User/Desktop/SlidingHome/source/main.cpp'
p1217
(lp1218
I1
ag1162
assS'Extensions'
p1219
(dp1220
S'PVRTexTool'
p1221
(dp1222
S'interface'
p1223
(dp1224
S'c:/marmalade/7.4/extensions/pvrtextool/interface/PVRTexTool_interface.cpp'
p1225
(lp1226
I1
a(dp1227
asS'c:/marmalade/7.4/extensions/pvrtextool/interface/PVRTexTool.defines.txt'
p1228
(lp1229
I1
ag1227
assS'c:/marmalade/7.4/extensions/pvrtextool/pvrtextool.mkf'
p1230
(lp1231
I1
a(dp1232
asS'c:/marmalade/7.4/extensions/pvrtextool/h/PVRTexTool.h'
p1233
(lp1234
I1
ag1227
asssS"'Marmalade Studio'"
p1235
(dp1236
S'iw2dscenegraph'
p1237
(dp1238
S'c:/marmalade/7.4/modules/iw2dscenegraph/h/Iw2DSceneGraph.h'
p1239
(lp1240
I1
a(dp1241
asS'c:/marmalade/7.4/modules/iw2dscenegraph/source/Iw2DSceneGraph.cpp'
p1242
(lp1243
I1
ag1241
asS'c:/marmalade/7.4/modules/iw2dscenegraph/iw2dscenegraph.mkf'
p1244
(lp1245
I1
a(dp1246
asS'c:/marmalade/7.4/modules/iw2dscenegraph/docs/iw2dscenegraph.defines.txt'
p1247
(lp1248
I1
ag1241
assS'iwgl'
p1249
(dp1250
S'c:/marmalade/7.4/modules/iwgl/iwgl.mkf'
p1251
(lp1252
I1
a(dp1253
asS'c:/marmalade/7.4/modules/iwgl/docs/iwgl.config.txt'
p1254
(lp1255
I1
a(dp1256
asS'c:/marmalade/7.4/modules/iwgl/h/IwGL.h'
p1257
(lp1258
I1
ag1256
asS'c:/marmalade/7.4/modules/iwgl/h/IwGLExt.h'
p1259
(lp1260
I1
ag1256
assS'iw2d'
p1261
(dp1262
S'c:/marmalade/7.4/modules/iw2d/docs/iw2d.config.txt'
p1263
(lp1264
I1
a(dp1265
asS'c:/marmalade/7.4/modules/iw2d/docs/iw2d_public.defines.txt'
p1266
(lp1267
I1
ag1265
asS'c:/marmalade/7.4/modules/iw2d/h/Iw2D.h'
p1268
(lp1269
I1
ag1265
asS'c:/marmalade/7.4/modules/iw2d/iw2d.mkf'
p1270
(lp1271
I1
a(dp1272
assS'iwgxfont'
p1273
(dp1274
S'c:/marmalade/7.4/modules/iwgxfont/docs/iwgxfont_public.defines.txt'
p1275
(lp1276
I1
a(dp1277
asS'c:/marmalade/7.4/modules/iwgxfont/h/IwGxFontGlyph.h'
p1278
(lp1279
I1
ag1277
asS'c:/marmalade/7.4/modules/iwgxfont/docs/iwgxfont.config.txt'
p1280
(lp1281
I1
ag1277
asS'c:/marmalade/7.4/modules/iwgxfont/h/IwGxFont.h'
p1282
(lp1283
I1
ag1277
asS'c:/marmalade/7.4/modules/iwgxfont/h/IwGxFontTypes.h'
p1284
(lp1285
I1
ag1277
asS'c:/marmalade/7.4/modules/iwgxfont/h/IwGxFontPreparedData.h'
p1286
(lp1287
I1
ag1277
asS'c:/marmalade/7.4/modules/iwgxfont/h/IwGxFontState.h'
p1288
(lp1289
I1
ag1277
asS'c:/marmalade/7.4/modules/iwgxfont/h/IwGxFontContainer.h'
p1290
(lp1291
I1
ag1277
asS'c:/marmalade/7.4/modules/iwgxfont/iwgxfont.mkf'
p1292
(lp1293
I1
a(dp1294
assS'iwgeom'
p1295
(dp1296
S'c:/marmalade/7.4/modules/iwgeom/docs/iwgeom.config.txt'
p1297
(lp1298
I1
a(dp1299
asS'c:/marmalade/7.4/modules/iwgeom/h/IwGeomFIntersect.h'
p1300
(lp1301
I1
ag1299
asS'c:/marmalade/7.4/modules/iwgeom/h/IwGeomMat2D.h.tpl'
p1302
(lp1303
I1
ag1299
asS'c:/marmalade/7.4/modules/iwgeom/iwgeom.mkf'
p1304
(lp1305
I1
a(dp1306
asS'c:/marmalade/7.4/modules/iwgeom/h/IwGeomVec.h.tpl'
p1307
(lp1308
I1
ag1299
asS'c:/marmalade/7.4/modules/iwgeom/h/IwGeomFSphere.h'
p1309
(lp1310
I1
ag1299
asS'c:/marmalade/7.4/modules/iwgeom/h/IwGeomFQuat.h'
p1311
(lp1312
I1
ag1299
asS'c:/marmalade/7.4/modules/iwgeom/h/IwGeomMenu.h'
p1313
(lp1314
I1
ag1299
asS'c:/marmalade/7.4/modules/iwgeom/h/IwGeomFMat2D.h'
p1315
(lp1316
I1
ag1299
asS'c:/marmalade/7.4/modules/iwgeom/h/IwGeomFVec4.h'
p1317
(lp1318
I1
ag1299
asS'c:/marmalade/7.4/modules/iwgeom/h/IwGeomQuat.h'
p1319
(lp1320
I1
ag1299
asS'c:/marmalade/7.4/modules/iwgeom/h/IwGeomFBBox.h'
p1321
(lp1322
I1
ag1299
asS'c:/marmalade/7.4/modules/iwgeom/h/IwGeomSVec4.h'
p1323
(lp1324
I1
ag1299
asS'c:/marmalade/7.4/modules/iwgeom/h/IwGeomFVec2.h'
p1325
(lp1326
I1
ag1299
asS'c:/marmalade/7.4/modules/iwgeom/h/IwGeomVec.h'
p1327
(lp1328
I1
ag1299
asS'c:/marmalade/7.4/modules/iwgeom/h/IwGeomPlane.h'
p1329
(lp1330
I1
ag1299
asS'c:/marmalade/7.4/modules/iwgeom/h/IwGeomQuat.h.tpl'
p1331
(lp1332
I1
ag1299
asS'c:/marmalade/7.4/modules/iwgeom/h/IwGeomSVec3.h'
p1333
(lp1334
I1
ag1299
asS'c:/marmalade/7.4/modules/iwgeom/h/IwGeomMat.h'
p1335
(lp1336
I1
ag1299
asS'c:/marmalade/7.4/modules/iwgeom/h/IwGeomVec3.h'
p1337
(lp1338
I1
ag1299
asS'c:/marmalade/7.4/modules/iwgeom/h/IwGeomVec2.h'
p1339
(lp1340
I1
ag1299
asS'c:/marmalade/7.4/modules/iwgeom/h/IwGeomLegacy.h'
p1341
(lp1342
I1
ag1299
asS'c:/marmalade/7.4/modules/iwgeom/h/IwGeomSQuat.h'
p1343
(lp1344
I1
ag1299
asS'c:/marmalade/7.4/modules/iwgeom/h/IwGeomCore.h'
p1345
(lp1346
I1
ag1299
asS'c:/marmalade/7.4/modules/iwgeom/h/IwGeomVec4.h'
p1347
(lp1348
I1
ag1299
asS'c:/marmalade/7.4/modules/iwgeom/h/IwGeomBBox.h'
p1349
(lp1350
I1
ag1299
asS'c:/marmalade/7.4/modules/iwgeom/h/IwGeomIntersect.h'
p1351
(lp1352
I1
ag1299
asS'c:/marmalade/7.4/modules/iwgeom/h/IwGeomSVec2.h'
p1353
(lp1354
I1
ag1299
asS'c:/marmalade/7.4/modules/iwgeom/h/IwGeomMat2D.h'
p1355
(lp1356
I1
ag1299
asS'c:/marmalade/7.4/modules/iwgeom/h/IwGeomSphere.h'
p1357
(lp1358
I1
ag1299
asS'c:/marmalade/7.4/modules/iwgeom/h/IwGeomFVec3.h'
p1359
(lp1360
I1
ag1299
asS'c:/marmalade/7.4/modules/iwgeom/h/IwGeom.h'
p1361
(lp1362
I1
ag1299
asS'c:/marmalade/7.4/modules/iwgeom/h/IwGeomMat.h.tpl'
p1363
(lp1364
I1
ag1299
asS'c:/marmalade/7.4/modules/iwgeom/h/IwGeomFPlane.h'
p1365
(lp1366
I1
ag1299
asS'c:/marmalade/7.4/modules/iwgeom/h/IwGeomFMat.h'
p1367
(lp1368
I1
ag1299
asS'c:/marmalade/7.4/modules/iwgeom/h/IwGeomSqrt.h'
p1369
(lp1370
I1
ag1299
assS'iwresmanager'
p1371
(dp1372
S'c:/marmalade/7.4/modules/iwresmanager/h/IwResHandlerITX.h'
p1373
(lp1374
I1
a(dp1375
asS'c:/marmalade/7.4/modules/iwresmanager/h/IwResGroup.h'
p1376
(lp1377
I1
ag1375
asS'c:/marmalade/7.4/modules/iwresmanager/h/IwResManager.h'
p1378
(lp1379
I1
ag1375
asS'c:/marmalade/7.4/modules/iwresmanager/h/IwResManagerClass.h'
p1380
(lp1381
I1
ag1375
asS'c:/marmalade/7.4/modules/iwresmanager/h/IwResSerialise.h'
p1382
(lp1383
I1
ag1375
asS'c:/marmalade/7.4/modules/iwresmanager/h/IwResHandlerGROUP.h'
p1384
(lp1385
I1
ag1375
asS'c:/marmalade/7.4/modules/iwresmanager/iwresmanager.mkf'
p1386
(lp1387
I1
a(dp1388
asS'c:/marmalade/7.4/modules/iwresmanager/h/IwResHandlerImage.h'
p1389
(lp1390
I1
ag1375
asS'c:/marmalade/7.4/modules/iwresmanager/h/IwResHandler.h'
p1391
(lp1392
I1
ag1375
asS'c:/marmalade/7.4/modules/iwresmanager/docs/iwresmanager.config.txt'
p1393
(lp1394
I1
ag1375
assS'iwgx'
p1395
(dp1396
S'c:/marmalade/7.4/modules/iwgx/h/IwDebugPrim.h'
p1397
(lp1398
I1
a(dp1399
asS'c:/marmalade/7.4/modules/iwgx/h/IwGxFuncTable.h'
p1400
(lp1401
I1
ag1399
asS'c:/marmalade/7.4/modules/iwgx/h/IwClip.inl'
p1402
(lp1403
I1
ag1399
asS'c:/marmalade/7.4/modules/iwgx/h/IwGxPrint.h'
p1404
(lp1405
I1
ag1399
asS'c:/marmalade/7.4/modules/iwgx/h/IwGx.h'
p1406
(lp1407
I1
ag1399
asS'c:/marmalade/7.4/modules/iwgx/h/IwTexture.h'
p1408
(lp1409
I1
ag1399
asS'c:/marmalade/7.4/modules/iwgx/h/IwFColour.h'
p1410
(lp1411
I1
ag1399
asS'c:/marmalade/7.4/modules/iwgx/h/IwColour.h'
p1412
(lp1413
I1
ag1399
asS'c:/marmalade/7.4/modules/iwgx/h/IwGxState.h'
p1414
(lp1415
I1
ag1399
asS'c:/marmalade/7.4/modules/iwgx/h/IwClip.h'
p1416
(lp1417
I1
ag1399
asS'c:/marmalade/7.4/modules/iwgx/h/IwTPage.h'
p1418
(lp1419
I1
ag1399
asS'c:/marmalade/7.4/modules/iwgx/h/IwMaterial.h'
p1420
(lp1421
I1
ag1399
asS'c:/marmalade/7.4/modules/iwgx/h/IwGxDebug.h'
p1422
(lp1423
I1
ag1399
asS'c:/marmalade/7.4/modules/iwgx/h/IwMatAnim.h'
p1424
(lp1425
I1
ag1399
asS'c:/marmalade/7.4/modules/iwgx/h/IwGxStream.h'
p1426
(lp1427
I1
ag1399
asS'c:/marmalade/7.4/modules/iwgx/h/IwResHandlerMTL.h'
p1428
(lp1429
I1
ag1399
asS'c:/marmalade/7.4/modules/iwgx/h/IwGxMetrics.h'
p1430
(lp1431
I1
ag1399
asS'c:/marmalade/7.4/modules/iwgx/h/IwGxError.h'
p1432
(lp1433
I1
ag1399
asS'c:/marmalade/7.4/modules/iwgx/docs/iwgx.config.txt'
p1434
(lp1435
I1
ag1399
asS'c:/marmalade/7.4/modules/iwgx/h/IwGxTransformSW.h'
p1436
(lp1437
I1
ag1399
asS'c:/marmalade/7.4/modules/iwgx/iwgx.mkf'
p1438
(lp1439
I1
a(dp1440
asS'c:/marmalade/7.4/modules/iwgx/docs/iwgx_public.defines.txt'
p1441
(lp1442
I1
ag1399
asS'c:/marmalade/7.4/modules/iwgx/h/IwGxShaderTechnique.h'
p1443
(lp1444
I1
ag1399
asS'c:/marmalade/7.4/modules/iwgx/h/IwGxTypes.h'
p1445
(lp1446
I1
ag1399
asS'c:/marmalade/7.4/modules/iwgx/h/IwGxSurface.h'
p1447
(lp1448
I1
ag1399
assS'iw2dscenegraphcore'
p1449
(dp1450
S'c:/marmalade/7.4/modules/iw2dscenegraphcore/iw2dscenegraphcore.mkf'
p1451
(lp1452
I1
a(dp1453
asS'c:/marmalade/7.4/modules/iw2dscenegraphcore/source/Iw2DSceneGraphCore.cpp'
p1454
(lp1455
I1
a(dp1456
asS'c:/marmalade/7.4/modules/iw2dscenegraphcore/h/Iw2DSceneGraphCore.h'
p1457
(lp1458
I1
ag1456
assS'iwutil'
p1459
(dp1460
S'c:/marmalade/7.4/modules/iwutil/h/IwTextParser.h'
p1461
(lp1462
I1
a(dp1463
asS'c:/marmalade/7.4/modules/iwutil/h/IwMenu.h'
p1464
(lp1465
I1
ag1463
asS'c:/marmalade/7.4/modules/iwutil/h/IwUtilInitTerm.h'
p1466
(lp1467
I1
ag1463
asS'c:/marmalade/7.4/modules/iwutil/h/IwCopyingPtr.h'
p1468
(lp1469
I1
ag1463
asS'c:/marmalade/7.4/modules/iwutil/h/IwDebug.h'
p1470
(lp1471
I1
ag1463
asS'c:/marmalade/7.4/modules/iwutil/h/IwDivTable.h'
p1472
(lp1473
I1
ag1463
asS'c:/marmalade/7.4/modules/iwutil/h/IwBuffer.h'
p1474
(lp1475
I1
ag1463
asS'c:/marmalade/7.4/modules/iwutil/h/IwRandom.h'
p1476
(lp1477
I1
ag1463
asS'c:/marmalade/7.4/modules/iwutil/h/IwResource.h'
p1478
(lp1479
I1
ag1463
asS'c:/marmalade/7.4/modules/iwutil/h/IwCore.h'
p1480
(lp1481
I1
ag1463
asS'c:/marmalade/7.4/modules/iwutil/h/IwTextParserITX.h'
p1482
(lp1483
I1
ag1463
asS'c:/marmalade/7.4/modules/iwutil/h/IwManaged.h'
p1484
(lp1485
I1
ag1463
asS'c:/marmalade/7.4/modules/iwutil/h/IwHashString.h'
p1486
(lp1487
I1
ag1463
asS'c:/marmalade/7.4/modules/iwutil/h/IwProfileMenu.h'
p1488
(lp1489
I1
ag1463
asS'c:/marmalade/7.4/modules/iwutil/h/IwManagedList.h'
p1490
(lp1491
I1
ag1463
asS'c:/marmalade/7.4/modules/iwutil/h/IwList.h'
p1492
(lp1493
I1
ag1463
asS'c:/marmalade/7.4/modules/iwutil/h/IwSerialise.h'
p1494
(lp1495
I1
ag1463
asS'c:/marmalade/7.4/modules/iwutil/h/IwClassFactory.h'
p1496
(lp1497
I1
ag1463
asS'c:/marmalade/7.4/modules/iwutil/h/IwTypes.h'
p1498
(lp1499
I1
ag1463
asS'c:/marmalade/7.4/modules/iwutil/h/IwAllocator.h'
p1500
(lp1501
I1
ag1463
asS'c:/marmalade/7.4/modules/iwutil/h/IwMemory.h'
p1502
(lp1503
I1
ag1463
asS'c:/marmalade/7.4/modules/iwutil/h/IwTextParseable.h'
p1504
(lp1505
I1
ag1463
asS'c:/marmalade/7.4/modules/iwutil/h/IwFile.h'
p1506
(lp1507
I1
ag1463
asS'c:/marmalade/7.4/modules/iwutil/h/IwRuntime.h'
p1508
(lp1509
I1
ag1463
asS'c:/marmalade/7.4/modules/iwutil/h/IwMemBucketHelpers.h'
p1510
(lp1511
I1
ag1463
asS'c:/marmalade/7.4/modules/iwutil/h/IwUncopyable.h'
p1512
(lp1513
I1
ag1463
asS'c:/marmalade/7.4/modules/iwutil/h/IwChar.h'
p1514
(lp1515
I1
ag1463
asS'c:/marmalade/7.4/modules/iwutil/h/IwOptimiseARM.h'
p1516
(lp1517
I1
ag1463
asS'c:/marmalade/7.4/modules/iwutil/h/IwImage.h'
p1518
(lp1519
I1
ag1463
asS'c:/marmalade/7.4/modules/iwutil/h/IwImageHelper.h'
p1520
(lp1521
I1
ag1463
asS'c:/marmalade/7.4/modules/iwutil/h/IwMemBucket.h'
p1522
(lp1523
I1
ag1463
asS'c:/marmalade/7.4/modules/iwutil/h/IwDivide.h'
p1524
(lp1525
I1
ag1463
asS'c:/marmalade/7.4/modules/iwutil/h/IwOptimiseSpeed.h'
p1526
(lp1527
I1
ag1463
asS'c:/marmalade/7.4/modules/iwutil/h/IwArray.h'
p1528
(lp1529
I1
ag1463
asS'c:/marmalade/7.4/modules/iwutil/docs/iwutil.config.txt'
p1530
(lp1531
I1
ag1463
asS'c:/marmalade/7.4/modules/iwutil/h/IwUTF8.h'
p1532
(lp1533
I1
ag1463
asS'c:/marmalade/7.4/modules/iwutil/h/IwEvent.h'
p1534
(lp1535
I1
ag1463
asS'c:/marmalade/7.4/modules/iwutil/h/IwMath.h'
p1536
(lp1537
I1
ag1463
asS'c:/marmalade/7.4/modules/iwutil/h/IwFibre.h'
p1538
(lp1539
I1
ag1463
asS'c:/marmalade/7.4/modules/iwutil/h/IwString.h'
p1540
(lp1541
I1
ag1463
asS'c:/marmalade/7.4/modules/iwutil/h/IwKeymap.h'
p1542
(lp1543
I1
ag1463
asS'c:/marmalade/7.4/modules/iwutil/iwutil.mkf'
p1544
(lp1545
I1
a(dp1546
asS'c:/marmalade/7.4/modules/iwutil/h/IwSingleton.h'
p1547
(lp1548
I1
ag1463
asS'c:/marmalade/7.4/modules/iwutil/h/IwAutoFile.h'
p1549
(lp1550
I1
ag1463
asS'c:/marmalade/7.4/modules/iwutil/h/IwOptimiseThumb.h'
p1551
(lp1552
I1
ag1463
asS'c:/marmalade/7.4/modules/iwutil/h/IwUtil.h'
p1553
(lp1554
I1
ag1463
asS'c:/marmalade/7.4/modules/iwutil/h/IwPath.h'
p1555
(lp1556
I1
ag1463
asS'c:/marmalade/7.4/modules/iwutil/h/IwMemManagerDL.h'
p1557
(lp1558
I1
ag1463
asS'c:/marmalade/7.4/modules/iwutil/h/IwVariableBitField.h'
p1559
(lp1560
I1
ag1463
asS'c:/marmalade/7.4/modules/iwutil/h/IwOptimiseSize.h'
p1561
(lp1562
I1
ag1463
asssS'(zlib)'
p1563
(dp1564
g1051
(dp1565
S'c:/marmalade/7.4/modules/third_party/zlib/h/zconf.h'
p1566
(lp1567
I1
a(dp1568
asS'c:/marmalade/7.4/modules/third_party/zlib/h/zlib.h'
p1569
(lp1570
I1
ag1568
assS'c:/marmalade/7.4/modules/third_party/zlib/zlib.mkf'
p1571
(lp1572
I1
a(dp1573
assS'(iwtween)'
p1574
(dp1575
S'c:/marmalade/7.4/modules/iwtween/source/IwTween.cpp'
p1576
(lp1577
I1
a(dp1578
asS'c:/marmalade/7.4/modules/iwtween/h/IwTween.h'
p1579
(lp1580
I1
ag1578
asS'c:/marmalade/7.4/modules/iwtween/iwtween.mkf'
p1581
(lp1582
I1
a(dp1583
assS'(s3e-default)'
p1584
(dp1585
S'c:/marmalade/7.4/s3e/s3e-default.mkf'
p1586
(lp1587
I1
a(dp1588
asssS'files'
p1589
(dp1590
S'IwGxFontPreparedData.h'
p1591
g312
(cmkb_main
File
p1592
g314
Ntp1593
Rp1594
(dp1595
S'flags'
p1596
g1277
sS'group'
p1597
(lp1598
S"'Marmalade Studio'"
p1599
ag1273
asg338
g1286
sbsS'iterator'
p1600
g312
(g1592
g314
Ntp1601
Rp1602
(dp1603
g1596
(dp1604
sg1597
(lp1605
S"'Marmalade System (S3E)'"
p1606
aS'stdc headers'
p1607
aS'c++'
p1608
asg338
S'c:/marmalade/7.4/s3e/h/std/c++/iterator'
p1609
sbsS'IwGL.h'
p1610
g312
(g1592
g314
Ntp1611
Rp1612
(dp1613
g1596
g1256
sg1597
(lp1614
S"'Marmalade Studio'"
p1615
ag1249
asg338
g1257
sbsS's3e.h'
p1616
g312
(g1592
g314
Ntp1617
Rp1618
(dp1619
g1596
g1604
sg1597
(lp1620
g1606
asg338
S'c:/marmalade/7.4/s3e/h/s3e.h'
p1621
sbsS'errno.h'
p1622
g312
(g1592
g314
Ntp1623
Rp1624
(dp1625
g1596
g1604
sg1597
(lp1626
g1606
aS'stdc headers'
p1627
asg338
S'c:/marmalade/7.4/s3e/h/std/errno.h'
p1628
sbsS'IwSingleton.h'
p1629
g312
(g1592
g314
Ntp1630
Rp1631
(dp1632
g1596
g1463
sg1597
(lp1633
S"'Marmalade Studio'"
p1634
ag1459
asg338
g1547
sbsS'dlfcn.h'
p1635
g312
(g1592
g314
Ntp1636
Rp1637
(dp1638
g1596
g1604
sg1597
g1626
sg338
S'c:/marmalade/7.4/s3e/h/std/dlfcn.h'
p1639
sbsS'IwSoundWAV.cpp'
p1640
g312
(g1592
g314
Ntp1641
Rp1642
(dp1643
g1596
g1110
sg1597
(lp1644
g1106
asg338
g1111
sbsS'sched.h'
p1645
g312
(g1592
g314
Ntp1646
Rp1647
(dp1648
g1596
g1604
sg1597
g1626
sg338
S'c:/marmalade/7.4/s3e/h/std/sched.h'
p1649
sbsS'IwSoundPCM.h'
p1650
g312
(g1592
g314
Ntp1651
Rp1652
(dp1653
g1596
g1110
sg1597
g1644
sg338
g1136
sbsS'IwGeomFMat2D.h'
p1654
g312
(g1592
g314
Ntp1655
Rp1656
(dp1657
g1596
g1299
sg1597
(lp1658
S"'Marmalade Studio'"
p1659
ag1295
asg338
g1315
sbsS'cassert'
p1660
g312
(g1592
g314
Ntp1661
Rp1662
(dp1663
g1596
g1604
sg1597
g1605
sg338
S'c:/marmalade/7.4/s3e/h/std/c++/cassert'
p1664
sbsS'grp.h'
p1665
g312
(g1592
g314
Ntp1666
Rp1667
(dp1668
g1596
g1604
sg1597
g1626
sg338
S'c:/marmalade/7.4/s3e/h/std/grp.h'
p1669
sbsS'list'
p1670
g312
(g1592
g314
Ntp1671
Rp1672
(dp1673
g1596
g1604
sg1597
g1605
sg338
S'c:/marmalade/7.4/s3e/h/std/c++/list'
p1674
sbsS'IwSoundSpec.cpp'
p1675
g312
(g1592
g314
Ntp1676
Rp1677
(dp1678
g1596
g1110
sg1597
g1644
sg338
g1115
sbsS'IwGeomMat.h.tpl'
p1679
g312
(g1592
g314
Ntp1680
Rp1681
(dp1682
g1596
g1299
sg1597
g1658
sg338
g1363
sbsS'istream'
p1683
g312
(g1592
g314
Ntp1684
Rp1685
(dp1686
g1596
g1604
sg1597
g1605
sg338
S'c:/marmalade/7.4/s3e/h/std/c++/istream'
p1687
sbsS'jpeglib.h'
p1688
g312
(g1592
g314
Ntp1689
Rp1690
(dp1691
g1596
g1066
sg1597
(lp1692
g1061
ag1051
asg338
g1071
sbsS'iw2d_public.defines.txt'
p1693
g312
(g1592
g314
Ntp1694
Rp1695
(dp1696
g1596
g1265
sg1597
(lp1697
S"'Marmalade Studio'"
p1698
ag1261
asg338
g1266
sbsS'iostream.h'
p1699
g312
(g1592
g314
Ntp1700
Rp1701
(dp1702
g1596
g1604
sg1597
g1605
sg338
S'c:/marmalade/7.4/s3e/h/std/c++/iostream.h'
p1703
sbsS'IwSoundADPCM.h'
p1704
g312
(g1592
g314
Ntp1705
Rp1706
(dp1707
g1596
g1110
sg1597
g1644
sg338
g1156
sbsS'string'
p1708
g312
(g1592
g314
Ntp1709
Rp1710
(dp1711
g1596
g1604
sg1597
g1605
sg338
S'c:/marmalade/7.4/s3e/h/std/c++/string'
p1712
sbsS'IwMemory.h'
p1713
g312
(g1592
g314
Ntp1714
Rp1715
(dp1716
g1596
g1463
sg1597
g1633
sg338
g1502
sbsS'IwGeomPlane.h'
p1717
g312
(g1592
g314
Ntp1718
Rp1719
(dp1720
g1596
g1299
sg1597
g1658
sg338
g1329
sbsS'iw2d.config.txt'
p1721
g312
(g1592
g314
Ntp1722
Rp1723
(dp1724
g1596
g1265
sg1597
g1697
sg338
g1263
sbsS'iomanip'
p1725
g312
(g1592
g314
Ntp1726
Rp1727
(dp1728
g1596
g1604
sg1597
g1605
sg338
S'c:/marmalade/7.4/s3e/h/std/c++/iomanip'
p1729
sbsS'iwgeom.mkf'
p1730
g312
(g1592
g314
Ntp1731
Rp1732
(dp1733
g1596
g1306
sg1597
g1658
sg338
g1304
sbsS'IwGxError.h'
p1734
g312
(g1592
g314
Ntp1735
Rp1736
(dp1737
g1596
g1399
sg1597
(lp1738
S"'Marmalade Studio'"
p1739
ag1395
asg338
g1432
sbsS'IwGeom.h'
p1740
g312
(g1592
g314
Ntp1741
Rp1742
(dp1743
g1596
g1299
sg1597
g1658
sg338
g1361
sbsS'scene.cpp'
p1744
g312
(g1592
g314
Ntp1745
Rp1746
(dp1747
g1596
g1162
sg1597
(lp1748
g1158
asg338
g1177
sbsS'IwGeomVec4.h'
p1749
g312
(g1592
g314
Ntp1750
Rp1751
(dp1752
g1596
g1299
sg1597
g1658
sg338
g1347
sbsS'dir.h'
p1753
g312
(g1592
g314
Ntp1754
Rp1755
(dp1756
g1596
g1604
sg1597
(lp1757
g1606
aS'stdc headers'
p1758
aS'sys'
p1759
asg338
S'c:/marmalade/7.4/s3e/h/std/sys/dir.h'
p1760
sbsS'locale.h'
p1761
g312
(g1592
g314
Ntp1762
Rp1763
(dp1764
g1596
g1604
sg1597
g1626
sg338
S'c:/marmalade/7.4/s3e/h/std/locale.h'
p1765
sbsS'vector'
p1766
g312
(g1592
g314
Ntp1767
Rp1768
(dp1769
g1596
g1604
sg1597
g1605
sg338
S'c:/marmalade/7.4/s3e/h/std/c++/vector'
p1770
sbsS'grid.h'
p1771
g312
(g1592
g314
Ntp1772
Rp1773
(dp1774
g1596
g1162
sg1597
g1748
sg338
g1179
sbsS'IwManaged.h'
p1775
g312
(g1592
g314
Ntp1776
Rp1777
(dp1778
g1596
g1463
sg1597
g1633
sg338
g1484
sbsS's3eCompass.h'
p1779
g312
(g1592
g314
Ntp1780
Rp1781
(dp1782
g1596
g1604
sg1597
g1620
sg338
S'c:/marmalade/7.4/s3e/h/s3eCompass.h'
p1783
sbsS'cderror.h'
p1784
g312
(g1592
g314
Ntp1785
Rp1786
(dp1787
g1596
g1066
sg1597
g1692
sg338
g1079
sbsS'climits'
p1788
g312
(g1592
g314
Ntp1789
Rp1790
(dp1791
g1596
g1604
sg1597
g1605
sg338
S'c:/marmalade/7.4/s3e/h/std/c++/climits'
p1792
sbsS's3eVibra.h'
p1793
g312
(g1592
g314
Ntp1794
Rp1795
(dp1796
g1596
g1604
sg1597
g1620
sg338
S'c:/marmalade/7.4/s3e/h/s3eVibra.h'
p1797
sbsS'jversion.h'
p1798
g312
(g1592
g314
Ntp1799
Rp1800
(dp1801
g1596
g1066
sg1597
g1692
sg338
g1083
sbsS'fnmatch.h'
p1802
g312
(g1592
g314
Ntp1803
Rp1804
(dp1805
g1596
g1604
sg1597
g1626
sg338
S'c:/marmalade/7.4/s3e/h/std/fnmatch.h'
p1806
sbsS'IwGxState.h'
p1807
g312
(g1592
g314
Ntp1808
Rp1809
(dp1810
g1596
g1399
sg1597
g1738
sg338
g1414
sbsS'rope'
p1811
g312
(g1592
g314
Ntp1812
Rp1813
(dp1814
g1596
g1604
sg1597
g1605
sg338
S'c:/marmalade/7.4/s3e/h/std/c++/rope'
p1815
sbsS's3eAudio.h'
p1816
g312
(g1592
g314
Ntp1817
Rp1818
(dp1819
g1596
g1604
sg1597
g1620
sg338
S'c:/marmalade/7.4/s3e/h/s3eAudio.h'
p1820
sbsS's3eSurface.h'
p1821
g312
(g1592
g314
Ntp1822
Rp1823
(dp1824
g1596
g1604
sg1597
g1620
sg338
S'c:/marmalade/7.4/s3e/h/s3eSurface.h'
p1825
sbsS'new'
p1826
g312
(g1592
g314
Ntp1827
Rp1828
(dp1829
g1596
g1604
sg1597
g1605
sg338
S'c:/marmalade/7.4/s3e/h/std/c++/new'
p1830
sbsS's3eWindow.h'
p1831
g312
(g1592
g314
Ntp1832
Rp1833
(dp1834
g1596
g1604
sg1597
(lp1835
g1606
aS'Extensions'
p1836
asg338
S'c:/marmalade/7.4/s3e/h/ext/s3eWindow.h'
p1837
sbsS'IwBuffer.h'
p1838
g312
(g1592
g314
Ntp1839
Rp1840
(dp1841
g1596
g1463
sg1597
g1633
sg338
g1474
sbsS'stdio_streambuf'
p1842
g312
(g1592
g314
Ntp1843
Rp1844
(dp1845
g1596
g1604
sg1597
g1605
sg338
S'c:/marmalade/7.4/s3e/h/std/c++/stdio_streambuf'
p1846
sbsS'IwGeomQuat.h.tpl'
p1847
g312
(g1592
g314
Ntp1848
Rp1849
(dp1850
g1596
g1299
sg1597
g1658
sg338
g1331
sbsS's3eOSExec.h'
p1851
g312
(g1592
g314
Ntp1852
Rp1853
(dp1854
g1596
g1604
sg1597
g1835
sg338
S'c:/marmalade/7.4/s3e/h/ext/s3eOSExec.h'
p1855
sbsS'IwGxTransformSW.h'
p1856
g312
(g1592
g314
Ntp1857
Rp1858
(dp1859
g1596
g1399
sg1597
g1738
sg338
g1436
sbsS'IwGxMetrics.h'
p1860
g312
(g1592
g314
Ntp1861
Rp1862
(dp1863
g1596
g1399
sg1597
g1738
sg338
g1430
sbsS'iwgxfont.config.txt'
p1864
g312
(g1592
g314
Ntp1865
Rp1866
(dp1867
g1596
g1277
sg1597
g1598
sg338
g1280
sbsS'gl2platform.h'
p1868
g312
(g1592
g314
Ntp1869
Rp1870
(dp1871
g1596
g1604
sg1597
(lp1872
g1606
aS'GL'
p1873
aS'GLES 2.0'
p1874
asg338
S'c:/marmalade/7.4/s3e/h/GLES2/gl2platform.h'
p1875
sbsS'IwResManagerClass.h'
p1876
g312
(g1592
g314
Ntp1877
Rp1878
(dp1879
g1596
g1375
sg1597
(lp1880
g1235
ag1371
asg338
g1380
sbsS'queue'
p1881
g312
(g1592
g314
Ntp1882
Rp1883
(dp1884
g1596
g1604
sg1597
g1605
sg338
S'c:/marmalade/7.4/s3e/h/std/c++/queue'
p1885
sbsS'endScreen.cpp'
p1886
g312
(g1592
g314
Ntp1887
Rp1888
(dp1889
g1596
g1162
sg1597
g1748
sg338
g1183
sbsS'time_1.h'
p1890
g312
(g1592
g314
Ntp1891
Rp1892
(dp1893
g1596
g1604
sg1597
g1757
sg338
S'c:/marmalade/7.4/s3e/h/std/sys/time.h'
p1894
sbsS'Iw2D.h'
p1895
g312
(g1592
g314
Ntp1896
Rp1897
(dp1898
g1596
g1265
sg1597
g1697
sg338
g1268
sbsS'IwGeomVec2.h'
p1899
g312
(g1592
g314
Ntp1900
Rp1901
(dp1902
g1596
g1299
sg1597
g1658
sg338
g1339
sbsS'sendfile.h'
p1903
g312
(g1592
g314
Ntp1904
Rp1905
(dp1906
g1596
g1604
sg1597
g1757
sg338
S'c:/marmalade/7.4/s3e/h/std/sys/sendfile.h'
p1907
sbsS'malloc.h'
p1908
g312
(g1592
g314
Ntp1909
Rp1910
(dp1911
g1596
g1604
sg1597
g1626
sg338
S'c:/marmalade/7.4/s3e/h/std/malloc.h'
p1912
sbsS'stdarg.h'
p1913
g312
(g1592
g314
Ntp1914
Rp1915
(dp1916
g1596
g1604
sg1597
g1626
sg338
S'c:/marmalade/7.4/s3e/h/std/stdarg.h'
p1917
sbsS'IwGeomCore.h'
p1918
g312
(g1592
g314
Ntp1919
Rp1920
(dp1921
g1596
g1299
sg1597
g1658
sg338
g1345
sbsS'Iw2DSceneGraph.h'
p1922
g312
(g1592
g314
Ntp1923
Rp1924
(dp1925
g1596
g1241
sg1597
(lp1926
S"'Marmalade Studio'"
p1927
ag1237
asg338
g1239
sbsS'endian.h'
p1928
g312
(g1592
g314
Ntp1929
Rp1930
(dp1931
g1596
g1604
sg1597
g1626
sg338
S'c:/marmalade/7.4/s3e/h/std/endian.h'
p1932
sbsS'gl3ext.h'
p1933
g312
(g1592
g314
Ntp1934
Rp1935
(dp1936
g1596
g1604
sg1597
(lp1937
g1606
aS'GL'
p1938
aS'GLES 3.0'
p1939
asg338
S'c:/marmalade/7.4/s3e/h/GLES3/gl3ext.h'
p1940
sbsS'glob.h'
p1941
g312
(g1592
g314
Ntp1942
Rp1943
(dp1944
g1596
g1604
sg1597
g1626
sg338
S'c:/marmalade/7.4/s3e/h/std/glob.h'
p1945
sbsS'fstream'
p1946
g312
(g1592
g314
Ntp1947
Rp1948
(dp1949
g1596
g1604
sg1597
g1605
sg338
S'c:/marmalade/7.4/s3e/h/std/c++/fstream'
p1950
sbsS's3eCamera.h'
p1951
g312
(g1592
g314
Ntp1952
Rp1953
(dp1954
g1596
g1604
sg1597
g1620
sg338
S'c:/marmalade/7.4/s3e/h/s3eCamera.h'
p1955
sbsS'jconfig.h'
p1956
g312
(g1592
g314
Ntp1957
Rp1958
(dp1959
g1596
g1066
sg1597
g1692
sg338
g1077
sbsS'memory'
p1960
g312
(g1592
g314
Ntp1961
Rp1962
(dp1963
g1596
g1604
sg1597
g1605
sg338
S'c:/marmalade/7.4/s3e/h/std/c++/memory'
p1964
sbsS'egl.h'
p1965
g312
(g1592
g314
Ntp1966
Rp1967
(dp1968
g1596
g1604
sg1597
(lp1969
g1606
aS'GL'
p1970
aS'EGL'
p1971
asg338
S'c:/marmalade/7.4/s3e/h/EGL/egl.h'
p1972
sbsS'egl_1.h'
p1973
g312
(g1592
g314
Ntp1974
Rp1975
(dp1976
g1596
g1604
sg1597
(lp1977
g1606
aS'GL'
p1978
aS'GLES 1.x'
p1979
asg338
S'c:/marmalade/7.4/s3e/h/GLES/egl.h'
p1980
sbsS'IwMemManagerDL.h'
p1981
g312
(g1592
g314
Ntp1982
Rp1983
(dp1984
g1596
g1463
sg1597
g1633
sg338
g1557
sbsS'deque'
p1985
g312
(g1592
g314
Ntp1986
Rp1987
(dp1988
g1596
g1604
sg1597
g1605
sg338
S'c:/marmalade/7.4/s3e/h/std/c++/deque'
p1989
sbsS'IwString.h'
p1990
g312
(g1592
g314
Ntp1991
Rp1992
(dp1993
g1596
g1463
sg1597
g1633
sg338
g1540
sbsS'cwchar'
p1994
g312
(g1592
g314
Ntp1995
Rp1996
(dp1997
g1596
g1604
sg1597
g1605
sg338
S'c:/marmalade/7.4/s3e/h/std/c++/cwchar'
p1998
sbsS'iwutil.mkf'
p1999
g312
(g1592
g314
Ntp2000
Rp2001
(dp2002
g1596
g1546
sg1597
g1633
sg338
g1544
sbsS'csignal'
p2003
g312
(g1592
g314
Ntp2004
Rp2005
(dp2006
g1596
g1604
sg1597
g1605
sg338
S'c:/marmalade/7.4/s3e/h/std/c++/csignal'
p2007
sbsS'float.h'
p2008
g312
(g1592
g314
Ntp2009
Rp2010
(dp2011
g1596
g1604
sg1597
g1626
sg338
S'c:/marmalade/7.4/s3e/h/std/float.h'
p2012
sbsS'pthread_alloc'
p2013
g312
(g1592
g314
Ntp2014
Rp2015
(dp2016
g1596
g1604
sg1597
g1605
sg338
S'c:/marmalade/7.4/s3e/h/std/c++/pthread_alloc'
p2017
sbsS'getopt.h'
p2018
g312
(g1592
g314
Ntp2019
Rp2020
(dp2021
g1596
g1604
sg1597
g1626
sg338
S'c:/marmalade/7.4/s3e/h/std/getopt.h'
p2022
sbsS'IwOptimiseARM.h'
p2023
g312
(g1592
g314
Ntp2024
Rp2025
(dp2026
g1596
g1463
sg1597
g1633
sg338
g1516
sbsS'times.h'
p2027
g312
(g1592
g314
Ntp2028
Rp2029
(dp2030
g1596
g1604
sg1597
g1757
sg338
S'c:/marmalade/7.4/s3e/h/std/sys/times.h'
p2031
sbsS'IwGeomFSphere.h'
p2032
g312
(g1592
g314
Ntp2033
Rp2034
(dp2035
g1596
g1299
sg1597
g1658
sg338
g1309
sbsS'game.h'
p2036
g312
(g1592
g314
Ntp2037
Rp2038
(dp2039
g1596
g1162
sg1597
g1748
sg338
g1165
sbsS'functional'
p2040
g312
(g1592
g314
Ntp2041
Rp2042
(dp2043
g1596
g1604
sg1597
g1605
sg338
S'c:/marmalade/7.4/s3e/h/std/c++/functional'
p2044
sbsS'IwTypes.h'
p2045
g312
(g1592
g314
Ntp2046
Rp2047
(dp2048
g1596
g1463
sg1597
g1633
sg338
g1498
sbsS'unistd.h'
p2049
g312
(g1592
g314
Ntp2050
Rp2051
(dp2052
g1596
g1604
sg1597
g1626
sg338
S'c:/marmalade/7.4/s3e/h/std/unistd.h'
p2053
sbsS'audio.cpp'
p2054
g312
(g1592
g314
Ntp2055
Rp2056
(dp2057
g1596
g1162
sg1597
g1748
sg338
g1167
sbsS's3eCompression.h'
p2058
g312
(g1592
g314
Ntp2059
Rp2060
(dp2061
g1596
g1604
sg1597
g1620
sg338
S'c:/marmalade/7.4/s3e/h/s3eCompression.h'
p2062
sbsS'langinfo.h'
p2063
g312
(g1592
g314
Ntp2064
Rp2065
(dp2066
g1596
g1604
sg1597
g1626
sg338
S'c:/marmalade/7.4/s3e/h/std/langinfo.h'
p2067
sbsS's3edebugHeap.h'
p2068
g312
(g1592
g314
Ntp2069
Rp2070
(dp2071
g1596
g1604
sg1597
g1835
sg338
S'c:/marmalade/7.4/s3e/h/ext/s3edebugHeap.h'
p2072
sbsS'AirplayVersion.h'
p2073
g312
(g1592
g314
Ntp2074
Rp2075
(dp2076
g1596
g1604
sg1597
g1620
sg338
S'c:/marmalade/7.4/s3e/h/AirplayVersion.h'
p2077
sbsS'gl2extimg.h'
p2078
g312
(g1592
g314
Ntp2079
Rp2080
(dp2081
g1596
g1604
sg1597
g1872
sg338
S'c:/marmalade/7.4/s3e/h/GLES2/gl2extimg.h'
p2082
sbsS'IwGeomSqrt.h'
p2083
g312
(g1592
g314
Ntp2084
Rp2085
(dp2086
g1596
g1299
sg1597
g1658
sg338
g1369
sbsS'tiniconv_int.h'
p2087
g312
(g1592
g314
Ntp2088
Rp2089
(dp2090
g1596
g1100
sg1597
(lp2091
g1096
asg338
g1098
sbsS'syslog.h'
p2092
g312
(g1592
g314
Ntp2093
Rp2094
(dp2095
g1596
g1604
sg1597
g1626
sg338
S'c:/marmalade/7.4/s3e/h/std/syslog.h'
p2096
sbsS'IwGxFontTypes.h'
p2097
g312
(g1592
g314
Ntp2098
Rp2099
(dp2100
g1596
g1277
sg1597
g1598
sg338
g1284
sbsS'IwGeomFIntersect.h'
p2101
g312
(g1592
g314
Ntp2102
Rp2103
(dp2104
g1596
g1299
sg1597
g1658
sg338
g1300
sbsS'hash_map'
p2105
g312
(g1592
g314
Ntp2106
Rp2107
(dp2108
g1596
g1604
sg1597
g1605
sg338
S'c:/marmalade/7.4/s3e/h/std/c++/hash_map'
p2109
sbsS's3e.mkf'
p2110
g312
(g1592
g314
Ntp2111
Rp2112
(dp2113
g1596
(dp2114
sg1597
g1620
sg338
S'c:/marmalade/7.4/s3e/s3e.mkf'
p2115
sbsS'IwGeomMat2D.h.tpl'
p2116
g312
(g1592
g314
Ntp2117
Rp2118
(dp2119
g1596
g1299
sg1597
g1658
sg338
g1302
sbsS's3eOSReadString.h'
p2120
g312
(g1592
g314
Ntp2121
Rp2122
(dp2123
g1596
g1604
sg1597
g1835
sg338
S'c:/marmalade/7.4/s3e/h/ext/s3eOSReadString.h'
p2124
sbsS'IwSound.h'
p2125
g312
(g1592
g314
Ntp2126
Rp2127
(dp2128
g1596
g1110
sg1597
g1644
sg338
g1130
sbsS'map'
p2129
g312
(g1592
g314
Ntp2130
Rp2131
(dp2132
g1596
g1604
sg1597
g1605
sg338
S'c:/marmalade/7.4/s3e/h/std/c++/map'
p2133
sbsS'iwtween.mkf'
p2134
g312
(g1592
g314
Ntp2135
Rp2136
(dp2137
g1596
g1583
sg1597
(lp2138
g1574
asg338
g1581
sbsS'IwOptimiseSpeed.h'
p2139
g312
(g1592
g314
Ntp2140
Rp2141
(dp2142
g1596
g1463
sg1597
g1633
sg338
g1526
sbsS'ostream'
p2143
g312
(g1592
g314
Ntp2144
Rp2145
(dp2146
g1596
g1604
sg1597
g1605
sg338
S'c:/marmalade/7.4/s3e/h/std/c++/ostream'
p2147
sbsS'msl_string.h'
p2148
g312
(g1592
g314
Ntp2149
Rp2150
(dp2151
g1596
g1604
sg1597
g1605
sg338
S'c:/marmalade/7.4/s3e/h/std/c++/msl_string.h'
p2152
sbsS'select.h'
p2153
g312
(g1592
g314
Ntp2154
Rp2155
(dp2156
g1596
g1604
sg1597
g1757
sg338
S'c:/marmalade/7.4/s3e/h/std/sys/select.h'
p2157
sbsS'zlib.mkf'
p2158
g312
(g1592
g314
Ntp2159
Rp2160
(dp2161
g1596
g1573
sg1597
(lp2162
g1563
asg338
g1571
sbsS'signal.h'
p2163
g312
(g1592
g314
Ntp2164
Rp2165
(dp2166
g1596
g1604
sg1597
g1626
sg338
S'c:/marmalade/7.4/s3e/h/std/signal.h'
p2167
sbsS'sigcontext.h'
p2168
g312
(g1592
g314
Ntp2169
Rp2170
(dp2171
g1596
g1604
sg1597
g1626
sg338
S'c:/marmalade/7.4/s3e/h/std/sigcontext.h'
p2172
sbsS'libpng.mkf'
p2173
g312
(g1592
g314
Ntp2174
Rp2175
(dp2176
g1596
g1060
sg1597
(lp2177
g1049
asg338
g1058
sbsS's3eClipboard.h'
p2178
g312
(g1592
g314
Ntp2179
Rp2180
(dp2181
g1596
g1604
sg1597
g1620
sg338
S'c:/marmalade/7.4/s3e/h/s3eClipboard.h'
p2182
sbsS'IwGxFuncTable.h'
p2183
g312
(g1592
g314
Ntp2184
Rp2185
(dp2186
g1596
g1399
sg1597
g1738
sg338
g1400
sbsS'IwResHandlerGROUP.h'
p2187
g312
(g1592
g314
Ntp2188
Rp2189
(dp2190
g1596
g1375
sg1597
g1880
sg338
g1384
sbsS's3eDebug.h'
p2191
g312
(g1592
g314
Ntp2192
Rp2193
(dp2194
g1596
g1604
sg1597
g1620
sg338
S'c:/marmalade/7.4/s3e/h/s3eDebug.h'
p2195
sbsS'socket.h'
p2196
g312
(g1592
g314
Ntp2197
Rp2198
(dp2199
g1596
g1604
sg1597
g1757
sg338
S'c:/marmalade/7.4/s3e/h/std/sys/socket.h'
p2200
sbsS'glext.h'
p2201
g312
(g1592
g314
Ntp2202
Rp2203
(dp2204
g1596
g1604
sg1597
g1977
sg338
S'c:/marmalade/7.4/s3e/h/GLES/glext.h'
p2205
sbsS'typeinfo.h'
p2206
g312
(g1592
g314
Ntp2207
Rp2208
(dp2209
g1596
g1604
sg1597
g1605
sg338
S'c:/marmalade/7.4/s3e/h/std/c++/typeinfo.h'
p2210
sbsS'typeinfo'
p2211
g312
(g1592
g314
Ntp2212
Rp2213
(dp2214
g1596
g1604
sg1597
g1605
sg338
S'c:/marmalade/7.4/s3e/h/std/c++/typeinfo'
p2215
sbsS'iwsound.config.txt'
p2216
g312
(g1592
g314
Ntp2217
Rp2218
(dp2219
g1596
g1110
sg1597
(lp2220
g1106
ag1122
asg338
g1124
sbsS'fstream.h'
p2221
g312
(g1592
g314
Ntp2222
Rp2223
(dp2224
g1596
g1604
sg1597
g1605
sg338
S'c:/marmalade/7.4/s3e/h/std/c++/fstream.h'
p2225
sbsS'IwGeomMat.h'
p2226
g312
(g1592
g314
Ntp2227
Rp2228
(dp2229
g1596
g1299
sg1597
g1658
sg338
g1335
sbsS's3ePointer.h'
p2230
g312
(g1592
g314
Ntp2231
Rp2232
(dp2233
g1596
g1604
sg1597
g1620
sg338
S'c:/marmalade/7.4/s3e/h/s3ePointer.h'
p2234
sbsS'IwMemBucket.h'
p2235
g312
(g1592
g314
Ntp2236
Rp2237
(dp2238
g1596
g1463
sg1597
g1633
sg338
g1522
sbsS'PVRTexTool.h'
p2239
g312
(g1592
g314
Ntp2240
Rp2241
(dp2242
g1596
g1227
sg1597
(lp2243
g1219
ag1221
asg338
g1233
sbsS's3eGL.h'
p2244
g312
(g1592
g314
Ntp2245
Rp2246
(dp2247
g1596
g1604
sg1597
g1620
sg338
S'c:/marmalade/7.4/s3e/h/s3eGL.h'
p2248
sbsS'grid.cpp'
p2249
g312
(g1592
g314
Ntp2250
Rp2251
(dp2252
g1596
g1162
sg1597
g1748
sg338
g1203
sbsS'IwGeomFVec2.h'
p2253
g312
(g1592
g314
Ntp2254
Rp2255
(dp2256
g1596
g1299
sg1597
g1658
sg338
g1325
sbsS'IwGeomSVec4.h'
p2257
g312
(g1592
g314
Ntp2258
Rp2259
(dp2260
g1596
g1299
sg1597
g1658
sg338
g1323
sbsS'poll.h'
p2261
g312
(g1592
g314
Ntp2262
Rp2263
(dp2264
g1596
g1604
sg1597
g1626
sg338
S'c:/marmalade/7.4/s3e/h/std/poll.h'
p2265
sbsS'IwMatAnim.h'
p2266
g312
(g1592
g314
Ntp2267
Rp2268
(dp2269
g1596
g1399
sg1597
g1738
sg338
g1424
sbsS'IwGeomFVec4.h'
p2270
g312
(g1592
g314
Ntp2271
Rp2272
(dp2273
g1596
g1299
sg1597
g1658
sg338
g1317
sbsS'IwGx.h'
p2274
g312
(g1592
g314
Ntp2275
Rp2276
(dp2277
g1596
g1399
sg1597
g1738
sg338
g1406
sbsS'valarray'
p2278
g312
(g1592
g314
Ntp2279
Rp2280
(dp2281
g1596
g1604
sg1597
g1605
sg338
S'c:/marmalade/7.4/s3e/h/std/c++/valarray'
p2282
sbsS'iosfwd'
p2283
g312
(g1592
g314
Ntp2284
Rp2285
(dp2286
g1596
g1604
sg1597
g1605
sg338
S'c:/marmalade/7.4/s3e/h/std/c++/iosfwd'
p2287
sbsS'gl2.h'
p2288
g312
(g1592
g314
Ntp2289
Rp2290
(dp2291
g1596
g1604
sg1597
g1872
sg338
S'c:/marmalade/7.4/s3e/h/GLES2/gl2.h'
p2292
sbsS'jpegint.h'
p2293
g312
(g1592
g314
Ntp2294
Rp2295
(dp2296
g1596
g1066
sg1597
g1692
sg338
g1089
sbsS'endScreen.h'
p2297
g312
(g1592
g314
Ntp2298
Rp2299
(dp2300
g1596
g1162
sg1597
g1748
sg338
g1171
sbsS'stdiostream.h'
p2301
g312
(g1592
g314
Ntp2302
Rp2303
(dp2304
g1596
g1604
sg1597
g1605
sg338
S'c:/marmalade/7.4/s3e/h/std/c++/stdiostream.h'
p2305
sbsS'mem.h'
p2306
g312
(g1592
g314
Ntp2307
Rp2308
(dp2309
g1596
g1604
sg1597
g1605
sg338
S'c:/marmalade/7.4/s3e/h/std/c++/mem.h'
p2310
sbsS'jerror.h'
p2311
g312
(g1592
g314
Ntp2312
Rp2313
(dp2314
g1596
g1066
sg1597
g1692
sg338
g1064
sbsS'zconf.h'
p2315
g312
(g1592
g314
Ntp2316
Rp2317
(dp2318
g1596
g1568
sg1597
(lp2319
g1563
ag1051
asg338
g1566
sbsS's3e.config.txt'
p2320
g312
(g1592
g314
Ntp2321
Rp2322
(dp2323
g1596
g1604
sg1597
g1620
sg338
S'c:/marmalade/7.4/s3e/s3e.config.txt'
p2324
sbsS'numeric'
p2325
g312
(g1592
g314
Ntp2326
Rp2327
(dp2328
g1596
g1604
sg1597
g1605
sg338
S'c:/marmalade/7.4/s3e/h/std/c++/numeric'
p2329
sbsS'utime.h'
p2330
g312
(g1592
g314
Ntp2331
Rp2332
(dp2333
g1596
g1604
sg1597
g1626
sg338
S'c:/marmalade/7.4/s3e/h/std/utime.h'
p2334
sbsS'jdhuff.h'
p2335
g312
(g1592
g314
Ntp2336
Rp2337
(dp2338
g1596
g1066
sg1597
g1692
sg338
g1087
sbsS'IwResHandlerWAV.cpp'
p2339
g312
(g1592
g314
Ntp2340
Rp2341
(dp2342
g1596
g1110
sg1597
g1644
sg338
g1132
sbsS'un.h'
p2343
g312
(g1592
g314
Ntp2344
Rp2345
(dp2346
g1596
g1604
sg1597
g1757
sg338
S'c:/marmalade/7.4/s3e/h/std/sys/un.h'
p2347
sbsS'IwImage.h'
p2348
g312
(g1592
g314
Ntp2349
Rp2350
(dp2351
g1596
g1463
sg1597
g1633
sg338
g1518
sbsS's3eImagePicker.h'
p2352
g312
(g1592
g314
Ntp2353
Rp2354
(dp2355
g1596
g1604
sg1597
g1835
sg338
S'c:/marmalade/7.4/s3e/h/ext/s3eImagePicker.h'
p2356
sbsS'stdlib.h'
p2357
g312
(g1592
g314
Ntp2358
Rp2359
(dp2360
g1596
g1604
sg1597
g1626
sg338
S'c:/marmalade/7.4/s3e/h/std/stdlib.h'
p2361
sbsS'IwCopyingPtr.h'
p2362
g312
(g1592
g314
Ntp2363
Rp2364
(dp2365
g1596
g1463
sg1597
g1633
sg338
g1468
sbsS'iostream'
p2366
g312
(g1592
g314
Ntp2367
Rp2368
(dp2369
g1596
g1604
sg1597
g1605
sg338
S'c:/marmalade/7.4/s3e/h/std/c++/iostream'
p2370
sbsS'png.h'
p2371
g312
(g1592
g314
Ntp2372
Rp2373
(dp2374
g1596
g1055
sg1597
(lp2375
g1049
ag1051
asg338
g1053
sbsS'stddef.h'
p2376
g312
(g1592
g314
Ntp2377
Rp2378
(dp2379
g1596
g1604
sg1597
g1626
sg338
S'c:/marmalade/7.4/s3e/h/std/stddef.h'
p2380
sbsS'setjmp_win32.h'
p2381
g312
(g1592
g314
Ntp2382
Rp2383
(dp2384
g1596
g1604
sg1597
g1626
sg338
S'c:/marmalade/7.4/s3e/h/std/setjmp_win32.h'
p2385
sbsS'pauseMenu.h'
p2386
g312
(g1592
g314
Ntp2387
Rp2388
(dp2389
g1596
g1162
sg1597
g1748
sg338
g1187
sbsS'IwGxPrint.h'
p2390
g312
(g1592
g314
Ntp2391
Rp2392
(dp2393
g1596
g1399
sg1597
g1738
sg338
g1404
sbsS'iwgx_public.defines.txt'
p2394
g312
(g1592
g314
Ntp2395
Rp2396
(dp2397
g1596
g1399
sg1597
g1738
sg338
g1441
sbsS'streambuf.h'
p2398
g312
(g1592
g314
Ntp2399
Rp2400
(dp2401
g1596
g1604
sg1597
g1605
sg338
S'c:/marmalade/7.4/s3e/h/std/c++/streambuf.h'
p2402
sbsS'resources.cpp'
p2403
g312
(g1592
g314
Ntp2404
Rp2405
(dp2406
g1596
g1162
sg1597
g1748
sg338
g1181
sbsS'IwGeomFPlane.h'
p2407
g312
(g1592
g314
Ntp2408
Rp2409
(dp2410
g1596
g1299
sg1597
g1658
sg338
g1365
sbsS'wchar.h'
p2411
g312
(g1592
g314
Ntp2412
Rp2413
(dp2414
g1596
g1604
sg1597
g1626
sg338
S'c:/marmalade/7.4/s3e/h/std/wchar.h'
p2415
sbsS'level.h'
p2416
g312
(g1592
g314
Ntp2417
Rp2418
(dp2419
g1596
g1162
sg1597
g1748
sg338
g1163
sbsS's3eCameraCapture.h'
p2420
g312
(g1592
g314
Ntp2421
Rp2422
(dp2423
g1596
g1604
sg1597
g1835
sg338
S'c:/marmalade/7.4/s3e/h/ext/s3eCameraCapture.h'
p2424
sbsS'eglext.h'
p2425
g312
(g1592
g314
Ntp2426
Rp2427
(dp2428
g1596
g1604
sg1597
g1969
sg338
S'c:/marmalade/7.4/s3e/h/EGL/eglext.h'
p2429
sbsS'IwResHandlerImage.h'
p2430
g312
(g1592
g314
Ntp2431
Rp2432
(dp2433
g1596
g1375
sg1597
g1880
sg338
g1389
sbsS'strstream.h'
p2434
g312
(g1592
g314
Ntp2435
Rp2436
(dp2437
g1596
g1604
sg1597
g1605
sg338
S'c:/marmalade/7.4/s3e/h/std/c++/strstream.h'
p2438
sbsS'tiniconv.h'
p2439
g312
(g1592
g314
Ntp2440
Rp2441
(dp2442
g1596
g1100
sg1597
g2091
sg338
g1104
sbsS'IwGLExt.h'
p2443
g312
(g1592
g314
Ntp2444
Rp2445
(dp2446
g1596
g1256
sg1597
g1614
sg338
g1259
sbsS'app.icf'
p2447
g312
(g1592
g314
Ntp2448
Rp2449
(dp2450
g1596
(dp2451
sg1597
g4
sg338
S'c:/Users/User/Desktop/SlidingHome/data/app.icf'
p2452
sbsS'IwClassFactory.h'
p2453
g312
(g1592
g314
Ntp2454
Rp2455
(dp2456
g1596
g1463
sg1597
g1633
sg338
g1496
sbsS'file.h'
p2457
g312
(g1592
g314
Ntp2458
Rp2459
(dp2460
g1596
g1604
sg1597
g1757
sg338
S'c:/marmalade/7.4/s3e/h/std/sys/file.h'
p2461
sbsS'cstring'
p2462
g312
(g1592
g314
Ntp2463
Rp2464
(dp2465
g1596
g1604
sg1597
g1605
sg338
S'c:/marmalade/7.4/s3e/h/std/c++/cstring'
p2466
sbsS'IwSoundInst.cpp'
p2467
g312
(g1592
g314
Ntp2468
Rp2469
(dp2470
g1596
g1110
sg1597
g1644
sg338
g1113
sbsS'iwutil.config.txt'
p2471
g312
(g1592
g314
Ntp2472
Rp2473
(dp2474
g1596
g1463
sg1597
g1633
sg338
g1530
sbsS's3eSMS.h'
p2475
g312
(g1592
g314
Ntp2476
Rp2477
(dp2478
g1596
g1604
sg1597
g1835
sg338
S'c:/marmalade/7.4/s3e/h/ext/s3eSMS.h'
p2479
sbsS'limits.h'
p2480
g312
(g1592
g314
Ntp2481
Rp2482
(dp2483
g1596
g1604
sg1597
g1626
sg338
S'c:/marmalade/7.4/s3e/h/std/limits.h'
p2484
sbsS'scene.h'
p2485
g312
(g1592
g314
Ntp2486
Rp2487
(dp2488
g1596
g1162
sg1597
g1748
sg338
g1191
sbsS'IwMaterial.h'
p2489
g312
(g1592
g314
Ntp2490
Rp2491
(dp2492
g1596
g1399
sg1597
g1738
sg338
g1420
sbsS'levelSelect.cpp'
p2493
g312
(g1592
g314
Ntp2494
Rp2495
(dp2496
g1596
g1162
sg1597
g1748
sg338
g1173
sbsS'PVRTexTool_interface.cpp'
p2497
g312
(g1592
g314
Ntp2498
Rp2499
(dp2500
g1596
g1227
sg1597
(lp2501
g1219
ag1221
ag1223
asg338
g1225
sbsS'IwGxSurface.h'
p2502
g312
(g1592
g314
Ntp2503
Rp2504
(dp2505
g1596
g1399
sg1597
g1738
sg338
g1447
sbsS's3eSocket.h'
p2506
g312
(g1592
g314
Ntp2507
Rp2508
(dp2509
g1596
g1604
sg1597
g1620
sg338
S'c:/marmalade/7.4/s3e/h/s3eSocket.h'
p2510
sbsS'IwAutoFile.h'
p2511
g312
(g1592
g314
Ntp2512
Rp2513
(dp2514
g1596
g1463
sg1597
g1633
sg338
g1549
sbsS'ipc.h'
p2515
g312
(g1592
g314
Ntp2516
Rp2517
(dp2518
g1596
g1604
sg1597
g1757
sg338
S'c:/marmalade/7.4/s3e/h/std/sys/ipc.h'
p2519
sbsS'poll_1.h'
p2520
g312
(g1592
g314
Ntp2521
Rp2522
(dp2523
g1596
g1604
sg1597
g1757
sg338
S'c:/marmalade/7.4/s3e/h/std/sys/poll.h'
p2524
sbsS's3eThread.h'
p2525
g312
(g1592
g314
Ntp2526
Rp2527
(dp2528
g1596
g1604
sg1597
g1620
sg338
S'c:/marmalade/7.4/s3e/h/s3eThread.h'
p2529
sbsS'ucontext.h'
p2530
g312
(g1592
g314
Ntp2531
Rp2532
(dp2533
g1596
g1604
sg1597
g1626
sg338
S'c:/marmalade/7.4/s3e/h/std/ucontext.h'
p2534
sbsS'time.h'
p2535
g312
(g1592
g314
Ntp2536
Rp2537
(dp2538
g1596
g1604
sg1597
g1626
sg338
S'c:/marmalade/7.4/s3e/h/std/time.h'
p2539
sbsS'jchuff.h'
p2540
g312
(g1592
g314
Ntp2541
Rp2542
(dp2543
g1596
g1066
sg1597
g1692
sg338
g1069
sbsS'IwSoundPCM.cpp'
p2544
g312
(g1592
g314
Ntp2545
Rp2546
(dp2547
g1596
g1110
sg1597
g1644
sg338
g1152
sbsS's3eSoundRecord.h'
p2548
g312
(g1592
g314
Ntp2549
Rp2550
(dp2551
g1596
g1604
sg1597
g1620
sg338
S'c:/marmalade/7.4/s3e/h/s3eSoundRecord.h'
p2552
sbsS'IwFibre.h'
p2553
g312
(g1592
g314
Ntp2554
Rp2555
(dp2556
g1596
g1463
sg1597
g1633
sg338
g1538
sbsS's3eVersion.h'
p2557
g312
(g1592
g314
Ntp2558
Rp2559
(dp2560
g1596
g1604
sg1597
g1620
sg338
S'c:/marmalade/7.4/s3e/h/s3eVersion.h'
p2561
sbsS'input.cpp'
p2562
g312
(g1592
g314
Ntp2563
Rp2564
(dp2565
g1596
g1162
sg1597
g1748
sg338
g1211
sbsS'IwSoundGroup.h'
p2566
g312
(g1592
g314
Ntp2567
Rp2568
(dp2569
g1596
g1110
sg1597
g1644
sg338
g1134
sbsS'IwSoundWAV.h'
p2570
g312
(g1592
g314
Ntp2571
Rp2572
(dp2573
g1596
g1110
sg1597
g1644
sg338
g1126
sbsS'IwGxFontGlyph.h'
p2574
g312
(g1592
g314
Ntp2575
Rp2576
(dp2577
g1596
g1277
sg1597
g1598
sg338
g1278
sbsS's3eTypes.h'
p2578
g312
(g1592
g314
Ntp2579
Rp2580
(dp2581
g1596
g1604
sg1597
g1620
sg338
S'c:/marmalade/7.4/s3e/h/s3eTypes.h'
p2582
sbsS'IwSoundSpec.h'
p2583
g312
(g1592
g314
Ntp2584
Rp2585
(dp2586
g1596
g1110
sg1597
g1644
sg338
g1144
sbsS'signal_2.h'
p2587
g312
(g1592
g314
Ntp2588
Rp2589
(dp2590
g1596
g1604
sg1597
g1605
sg338
S'c:/marmalade/7.4/s3e/h/std/c++/signal.h'
p2591
sbsS'termios.h'
p2592
g312
(g1592
g314
Ntp2593
Rp2594
(dp2595
g1596
g1604
sg1597
g1626
sg338
S'c:/marmalade/7.4/s3e/h/std/termios.h'
p2596
sbsS'iw2dscenegraph.mkf'
p2597
g312
(g1592
g314
Ntp2598
Rp2599
(dp2600
g1596
g1246
sg1597
g1926
sg338
g1244
sbsS'slist'
p2601
g312
(g1592
g314
Ntp2602
Rp2603
(dp2604
g1596
g1604
sg1597
g1605
sg338
S'c:/marmalade/7.4/s3e/h/std/c++/slist'
p2605
sbsS'cstdlib'
p2606
g312
(g1592
g314
Ntp2607
Rp2608
(dp2609
g1596
g1604
sg1597
g1605
sg338
S'c:/marmalade/7.4/s3e/h/std/c++/cstdlib'
p2610
sbsS's3eLocation.h'
p2611
g312
(g1592
g314
Ntp2612
Rp2613
(dp2614
g1596
g1604
sg1597
g1620
sg338
S'c:/marmalade/7.4/s3e/h/s3eLocation.h'
p2615
sbsS'IwMemBucketHelpers.h'
p2616
g312
(g1592
g314
Ntp2617
Rp2618
(dp2619
g1596
g1463
sg1597
g1633
sg338
g1510
sbsS's3eHash.h'
p2620
g312
(g1592
g314
Ntp2621
Rp2622
(dp2623
g1596
g1604
sg1597
g1620
sg338
S'c:/marmalade/7.4/s3e/h/s3eHash.h'
p2624
sbsS'IwSoundGroup.cpp'
p2625
g312
(g1592
g314
Ntp2626
Rp2627
(dp2628
g1596
g1110
sg1597
g1644
sg338
g1142
sbsS'IwGeomFMat.h'
p2629
g312
(g1592
g314
Ntp2630
Rp2631
(dp2632
g1596
g1299
sg1597
g1658
sg338
g1367
sbsS'type_traits.h'
p2633
g312
(g1592
g314
Ntp2634
Rp2635
(dp2636
g1596
g1604
sg1597
g1605
sg338
S'c:/marmalade/7.4/s3e/h/std/c++/type_traits.h'
p2637
sbsS'level.cpp'
p2638
g312
(g1592
g314
Ntp2639
Rp2640
(dp2641
g1596
g1162
sg1597
g1748
sg338
g1169
sbsS'IwMenu.h'
p2642
g312
(g1592
g314
Ntp2643
Rp2644
(dp2645
g1596
g1463
sg1597
g1633
sg338
g1464
sbsS'IwResHandlerITX.h'
p2646
g312
(g1592
g314
Ntp2647
Rp2648
(dp2649
g1596
g1375
sg1597
g1880
sg338
g1373
sbsS'IwSoundData.h'
p2650
g312
(g1592
g314
Ntp2651
Rp2652
(dp2653
g1596
g1110
sg1597
g1644
sg338
g1108
sbsS'IwArray.h'
p2654
g312
(g1592
g314
Ntp2655
Rp2656
(dp2657
g1596
g1463
sg1597
g1633
sg338
g1528
sbsS'IwUTF8.h'
p2658
g312
(g1592
g314
Ntp2659
Rp2660
(dp2661
g1596
g1463
sg1597
g1633
sg338
g1532
sbsS'math_rvct.h'
p2662
g312
(g1592
g314
Ntp2663
Rp2664
(dp2665
g1596
g1604
sg1597
g1626
sg338
S'c:/marmalade/7.4/s3e/h/std/math_rvct.h'
p2666
sbsS'IwUtil.h'
p2667
g312
(g1592
g314
Ntp2668
Rp2669
(dp2670
g1596
g1463
sg1597
g1633
sg338
g1553
sbsS'IwFColour.h'
p2671
g312
(g1592
g314
Ntp2672
Rp2673
(dp2674
g1596
g1399
sg1597
g1738
sg338
g1410
sbsS'wctype.h'
p2675
g312
(g1592
g314
Ntp2676
Rp2677
(dp2678
g1596
g1604
sg1597
g1626
sg338
S'c:/marmalade/7.4/s3e/h/std/wctype.h'
p2679
sbsS'mainMenu.h'
p2680
g312
(g1592
g314
Ntp2681
Rp2682
(dp2683
g1596
g1162
sg1597
g1748
sg338
g1201
sbsS'cstddef'
p2684
g312
(g1592
g314
Ntp2685
Rp2686
(dp2687
g1596
g1604
sg1597
g1605
sg338
S'c:/marmalade/7.4/s3e/h/std/c++/cstddef'
p2688
sbsS'assert.h'
p2689
g312
(g1592
g314
Ntp2690
Rp2691
(dp2692
g1596
g1604
sg1597
g1626
sg338
S'c:/marmalade/7.4/s3e/h/std/assert.h'
p2693
sbsS'mman.h'
p2694
g312
(g1592
g314
Ntp2695
Rp2696
(dp2697
g1596
g1604
sg1597
g1757
sg338
S'c:/marmalade/7.4/s3e/h/std/sys/mman.h'
p2698
sbsS'IwRandom.h'
p2699
g312
(g1592
g314
Ntp2700
Rp2701
(dp2702
g1596
g1463
sg1597
g1633
sg338
g1476
sbsS'libgen.h'
p2703
g312
(g1592
g314
Ntp2704
Rp2705
(dp2706
g1596
g1604
sg1597
g1626
sg338
S'c:/marmalade/7.4/s3e/h/std/libgen.h'
p2707
sbsS'utsname.h'
p2708
g312
(g1592
g314
Ntp2709
Rp2710
(dp2711
g1596
g1604
sg1597
g1757
sg338
S'c:/marmalade/7.4/s3e/h/std/sys/utsname.h'
p2712
sbsS'gameObject.h'
p2713
g312
(g1592
g314
Ntp2714
Rp2715
(dp2716
g1596
g1162
sg1597
g1748
sg338
g1213
sbsS'wait.h'
p2717
g312
(g1592
g314
Ntp2718
Rp2719
(dp2720
g1596
g1604
sg1597
g1757
sg338
S'c:/marmalade/7.4/s3e/h/std/sys/wait.h'
p2721
sbsS'param.h'
p2722
g312
(g1592
g314
Ntp2723
Rp2724
(dp2725
g1596
g1604
sg1597
g1757
sg338
S'c:/marmalade/7.4/s3e/h/std/sys/param.h'
p2726
sbsS'IwDivide.h'
p2727
g312
(g1592
g314
Ntp2728
Rp2729
(dp2730
g1596
g1463
sg1597
g1633
sg338
g1524
sbsS'Iw2DSceneGraphCore.cpp'
p2731
g312
(g1592
g314
Ntp2732
Rp2733
(dp2734
g1596
g1456
sg1597
(lp2735
S"'Marmalade Studio'"
p2736
ag1449
asg338
g1454
sbsS'IwResManager.h'
p2737
g312
(g1592
g314
Ntp2738
Rp2739
(dp2740
g1596
g1375
sg1597
g1880
sg338
g1378
sbsS'IwSoundManager.h'
p2741
g312
(g1592
g314
Ntp2742
Rp2743
(dp2744
g1596
g1110
sg1597
g1644
sg338
g1140
sbsS'cwctype'
p2745
g312
(g1592
g314
Ntp2746
Rp2747
(dp2748
g1596
g1604
sg1597
g1605
sg338
S'c:/marmalade/7.4/s3e/h/std/c++/cwctype'
p2749
sbsS'set'
p2750
g312
(g1592
g314
Ntp2751
Rp2752
(dp2753
g1596
g1604
sg1597
g1605
sg338
S'c:/marmalade/7.4/s3e/h/std/c++/set'
p2754
sbsS'IwGeomSQuat.h'
p2755
g312
(g1592
g314
Ntp2756
Rp2757
(dp2758
g1596
g1299
sg1597
g1658
sg338
g1343
sbsS'locale'
p2759
g312
(g1592
g314
Ntp2760
Rp2761
(dp2762
g1596
g1604
sg1597
g1605
sg338
S'c:/marmalade/7.4/s3e/h/std/c++/locale'
p2763
sbsS'cstdio'
p2764
g312
(g1592
g314
Ntp2765
Rp2766
(dp2767
g1596
g1604
sg1597
g1605
sg338
S'c:/marmalade/7.4/s3e/h/std/c++/cstdio'
p2768
sbsS'cdjpeg.h'
p2769
g312
(g1592
g314
Ntp2770
Rp2771
(dp2772
g1596
g1066
sg1597
g1692
sg338
g1073
sbsS'audio.h'
p2773
g312
(g1592
g314
Ntp2774
Rp2775
(dp2776
g1596
g1162
sg1597
g1748
sg338
g1209
sbsS'IwList.h'
p2777
g312
(g1592
g314
Ntp2778
Rp2779
(dp2780
g1596
g1463
sg1597
g1633
sg338
g1492
sbsS'pauseMenu.cpp'
p2781
g312
(g1592
g314
Ntp2782
Rp2783
(dp2784
g1596
g1162
sg1597
g1748
sg338
g1175
sbsS'inttypes.h'
p2785
g312
(g1592
g314
Ntp2786
Rp2787
(dp2788
g1596
g1604
sg1597
g1626
sg338
S'c:/marmalade/7.4/s3e/h/std/inttypes.h'
p2789
sbsS'dirent.h'
p2790
g312
(g1592
g314
Ntp2791
Rp2792
(dp2793
g1596
g1604
sg1597
g1626
sg338
S'c:/marmalade/7.4/s3e/h/std/dirent.h'
p2794
sbsS'IwGeomVec3.h'
p2795
g312
(g1592
g314
Ntp2796
Rp2797
(dp2798
g1596
g1299
sg1597
g1658
sg338
g1337
sbsS'transupp.h'
p2799
g312
(g1592
g314
Ntp2800
Rp2801
(dp2802
g1596
g1066
sg1597
g1692
sg338
g1085
sbsS'IwMath.h'
p2803
g312
(g1592
g314
Ntp2804
Rp2805
(dp2806
g1596
g1463
sg1597
g1633
sg338
g1536
sbsS'IwGeomQuat.h'
p2807
g312
(g1592
g314
Ntp2808
Rp2809
(dp2810
g1596
g1299
sg1597
g1658
sg338
g1319
sbsS'glplatform.h'
p2811
g312
(g1592
g314
Ntp2812
Rp2813
(dp2814
g1596
g1604
sg1597
g1977
sg338
S'c:/marmalade/7.4/s3e/h/GLES/glplatform.h'
p2815
sbsS's3e-default.mkf'
p2816
g312
(g1592
g314
Ntp2817
Rp2818
(dp2819
g1596
g1588
sg1597
(lp2820
g1584
asg338
g1586
sbsS'iwgl.config.txt'
p2821
g312
(g1592
g314
Ntp2822
Rp2823
(dp2824
g1596
g1256
sg1597
g1614
sg338
g1254
sbsS'bitset'
p2825
g312
(g1592
g314
Ntp2826
Rp2827
(dp2828
g1596
g1604
sg1597
g1605
sg338
S'c:/marmalade/7.4/s3e/h/std/c++/bitset'
p2829
sbsS'alloca.h'
p2830
g312
(g1592
g314
Ntp2831
Rp2832
(dp2833
g1596
g1604
sg1597
g1626
sg338
S'c:/marmalade/7.4/s3e/h/std/alloca.h'
p2834
sbsS'IwResHandler.h'
p2835
g312
(g1592
g314
Ntp2836
Rp2837
(dp2838
g1596
g1375
sg1597
g1880
sg338
g1391
sbsS'blankObject.cpp'
p2839
g312
(g1592
g314
Ntp2840
Rp2841
(dp2842
g1596
g1162
sg1597
g1748
sg338
g1185
sbsS'IwResHandlerMTL.h'
p2843
g312
(g1592
g314
Ntp2844
Rp2845
(dp2846
g1596
g1399
sg1597
g1738
sg338
g1428
sbsS'IwRuntime.h'
p2847
g312
(g1592
g314
Ntp2848
Rp2849
(dp2850
g1596
g1463
sg1597
g1633
sg338
g1508
sbsS'limits'
p2851
g312
(g1592
g314
Ntp2852
Rp2853
(dp2854
g1596
g1604
sg1597
g1605
sg338
S'c:/marmalade/7.4/s3e/h/std/c++/limits'
p2855
sbsS'IwGeomBBox.h'
p2856
g312
(g1592
g314
Ntp2857
Rp2858
(dp2859
g1596
g1299
sg1597
g1658
sg338
g1349
sbsS's3eContacts.h'
p2860
g312
(g1592
g314
Ntp2861
Rp2862
(dp2863
g1596
g1604
sg1597
g1620
sg338
S'c:/marmalade/7.4/s3e/h/s3eContacts.h'
p2864
sbsS's3eLicense.h'
p2865
g312
(g1592
g314
Ntp2866
Rp2867
(dp2868
g1596
g1604
sg1597
g1620
sg338
S'c:/marmalade/7.4/s3e/h/s3eLicense.h'
p2869
sbsS'iwgx.config.txt'
p2870
g312
(g1592
g314
Ntp2871
Rp2872
(dp2873
g1596
g1399
sg1597
g1738
sg338
g1434
sbsS'IwTextParser.h'
p2874
g312
(g1592
g314
Ntp2875
Rp2876
(dp2877
g1596
g1463
sg1597
g1633
sg338
g1461
sbsS's3eTimer.h'
p2878
g312
(g1592
g314
Ntp2879
Rp2880
(dp2881
g1596
g1604
sg1597
g1620
sg338
S'c:/marmalade/7.4/s3e/h/s3eTimer.h'
p2882
sbsS'IwGeomVec.h'
p2883
g312
(g1592
g314
Ntp2884
Rp2885
(dp2886
g1596
g1299
sg1597
g1658
sg338
g1327
sbsS'IwSerialise.h'
p2887
g312
(g1592
g314
Ntp2888
Rp2889
(dp2890
g1596
g1463
sg1597
g1633
sg338
g1494
sbsS'cstdarg'
p2891
g312
(g1592
g314
Ntp2892
Rp2893
(dp2894
g1596
g1604
sg1597
g1605
sg338
S'c:/marmalade/7.4/s3e/h/std/c++/cstdarg'
p2895
sbsS'gl2ext.h'
p2896
g312
(g1592
g314
Ntp2897
Rp2898
(dp2899
g1596
g1604
sg1597
g1872
sg338
S'c:/marmalade/7.4/s3e/h/GLES2/gl2ext.h'
p2900
sbsS'IwChar.h'
p2901
g312
(g1592
g314
Ntp2902
Rp2903
(dp2904
g1596
g1463
sg1597
g1633
sg338
g1514
sbsS's3eSound.h'
p2905
g312
(g1592
g314
Ntp2906
Rp2907
(dp2908
g1596
g1604
sg1597
g1620
sg338
S'c:/marmalade/7.4/s3e/h/s3eSound.h'
p2909
sbsS'gameObject.cpp'
p2910
g312
(g1592
g314
Ntp2911
Rp2912
(dp2913
g1596
g1162
sg1597
g1748
sg338
g1205
sbsS's3eIOSBackgroundAudio.h'
p2914
g312
(g1592
g314
Ntp2915
Rp2916
(dp2917
g1596
g1604
sg1597
g1835
sg338
S'c:/marmalade/7.4/s3e/h/ext/s3eIOSBackgroundAudio.h'
p2918
sbsS'exception.h'
p2919
g312
(g1592
g314
Ntp2920
Rp2921
(dp2922
g1596
g1604
sg1597
g1605
sg338
S'c:/marmalade/7.4/s3e/h/std/c++/exception.h'
p2923
sbsS'iwgeom.config.txt'
p2924
g312
(g1592
g314
Ntp2925
Rp2926
(dp2927
g1596
g1299
sg1597
g1658
sg338
g1297
sbsS'iwgx.mkf'
p2928
g312
(g1592
g314
Ntp2929
Rp2930
(dp2931
g1596
g1440
sg1597
g1738
sg338
g1438
sbsS'gl.h'
p2932
g312
(g1592
g314
Ntp2933
Rp2934
(dp2935
g1596
g1604
sg1597
g1977
sg338
S'c:/marmalade/7.4/s3e/h/GLES/gl.h'
p2936
sbsS'zlib.h'
p2937
g312
(g1592
g314
Ntp2938
Rp2939
(dp2940
g1596
g1568
sg1597
g2319
sg338
g1569
sbsS'temp_defines_release.h'
p2941
g312
(g1592
g314
Ntp2942
Rp2943
(dp2944
g1596
(lp2945
sg1597
(lp2946
S"'generated files'"
p2947
asg338
S'c:/Users/User/Desktop/SlidingHome/build_slidinghomec_vc11/temp_defines_release.h'
p2948
sbsS'iwgl.mkf'
p2949
g312
(g1592
g314
Ntp2950
Rp2951
(dp2952
g1596
g1253
sg1597
g1614
sg338
g1251
sbsS'IwColour.h'
p2953
g312
(g1592
g314
Ntp2954
Rp2955
(dp2956
g1596
g1399
sg1597
g1738
sg338
g1412
sbsS's3eLibrary.h'
p2957
g312
(g1592
g314
Ntp2958
Rp2959
(dp2960
g1596
g1604
sg1597
g1835
sg338
S'c:/marmalade/7.4/s3e/h/ext/s3eLibrary.h'
p2961
sbsS'types.h'
p2962
g312
(g1592
g314
Ntp2963
Rp2964
(dp2965
g1596
g1604
sg1597
g1757
sg338
S'c:/marmalade/7.4/s3e/h/std/sys/types.h'
p2966
sbsS'ifaddrs.h'
p2967
g312
(g1592
g314
Ntp2968
Rp2969
(dp2970
g1596
g1604
sg1597
g1626
sg338
S'c:/marmalade/7.4/s3e/h/std/ifaddrs.h'
p2971
sbsS'strstream'
p2972
g312
(g1592
g314
Ntp2973
Rp2974
(dp2975
g1596
g1604
sg1597
g1605
sg338
S'c:/marmalade/7.4/s3e/h/std/c++/strstream'
p2976
sbsS'IwTween.cpp'
p2977
g312
(g1592
g314
Ntp2978
Rp2979
(dp2980
g1596
g1578
sg1597
g2138
sg338
g1576
sbsS'exception'
p2981
g312
(g1592
g314
Ntp2982
Rp2983
(dp2984
g1596
g1604
sg1597
g1605
sg338
S'c:/marmalade/7.4/s3e/h/std/c++/exception'
p2985
sbsS'rlocks.h'
p2986
g312
(g1592
g314
Ntp2987
Rp2988
(dp2989
g1596
g1604
sg1597
g1605
sg338
S'c:/marmalade/7.4/s3e/h/std/c++/rlocks.h'
p2990
sbsS'ioctl.h'
p2991
g312
(g1592
g314
Ntp2992
Rp2993
(dp2994
g1596
g1604
sg1597
g1757
sg338
S'c:/marmalade/7.4/s3e/h/std/sys/ioctl.h'
p2995
sbsS'sem.h'
p2996
g312
(g1592
g314
Ntp2997
Rp2998
(dp2999
g1596
g1604
sg1597
g1757
sg338
S'c:/marmalade/7.4/s3e/h/std/sys/sem.h'
p3000
sbsS'jinclude.h'
p3001
g312
(g1592
g314
Ntp3002
Rp3003
(dp3004
g1596
g1066
sg1597
g1692
sg338
g1075
sbsS'IwEvent.h'
p3005
g312
(g1592
g314
Ntp3006
Rp3007
(dp3008
g1596
g1463
sg1597
g1633
sg338
g1534
sbsS'IwOptimiseSize.h'
p3009
g312
(g1592
g314
Ntp3010
Rp3011
(dp3012
g1596
g1463
sg1597
g1633
sg338
g1561
sbsS'iwgxfont_public.defines.txt'
p3013
g312
(g1592
g314
Ntp3014
Rp3015
(dp3016
g1596
g1277
sg1597
g1598
sg338
g1275
sbsS'iconv.h'
p3017
g312
(g1592
g314
Ntp3018
Rp3019
(dp3020
g1596
g1604
sg1597
g1626
sg338
S'c:/marmalade/7.4/s3e/h/std/iconv.h'
p3021
sbsS's3eDevice.h'
p3022
g312
(g1592
g314
Ntp3023
Rp3024
(dp3025
g1596
g1604
sg1597
g1620
sg338
S'c:/marmalade/7.4/s3e/h/s3eDevice.h'
p3026
sbsS'IwGeomSphere.h'
p3027
g312
(g1592
g314
Ntp3028
Rp3029
(dp3030
g1596
g1299
sg1597
g1658
sg338
g1357
sbsS'tiniconv.mkf'
p3031
g312
(g1592
g314
Ntp3032
Rp3033
(dp3034
g1596
g1103
sg1597
g2091
sg338
g1101
sbsS'iw2dscenegraph.defines.txt'
p3035
g312
(g1592
g314
Ntp3036
Rp3037
(dp3038
g1596
g1241
sg1597
g1926
sg338
g1247
sbsS'jdct.h'
p3039
g312
(g1592
g314
Ntp3040
Rp3041
(dp3042
g1596
g1066
sg1597
g1692
sg338
g1081
sbsS'cctype'
p3043
g312
(g1592
g314
Ntp3044
Rp3045
(dp3046
g1596
g1604
sg1597
g1605
sg338
S'c:/marmalade/7.4/s3e/h/std/c++/cctype'
p3047
sbsS'IwSoundADPCM.cpp'
p3048
g312
(g1592
g314
Ntp3049
Rp3050
(dp3051
g1596
g1110
sg1597
g1644
sg338
g1150
sbsS's3eConfig.h'
p3052
g312
(g1592
g314
Ntp3053
Rp3054
(dp3055
g1596
g1604
sg1597
g1620
sg338
S'c:/marmalade/7.4/s3e/h/s3eConfig.h'
p3056
sbsS'IwHashString.h'
p3057
g312
(g1592
g314
Ntp3058
Rp3059
(dp3060
g1596
g1463
sg1597
g1633
sg338
g1486
sbsS'stat.h'
p3061
g312
(g1592
g314
Ntp3062
Rp3063
(dp3064
g1596
g1604
sg1597
g1757
sg338
S'c:/marmalade/7.4/s3e/h/std/sys/stat.h'
p3065
sbsS'byteswap.h'
p3066
g312
(g1592
g314
Ntp3067
Rp3068
(dp3069
g1596
g1604
sg1597
g1626
sg338
S'c:/marmalade/7.4/s3e/h/std/byteswap.h'
p3070
sbsS'iwresmanager.mkf'
p3071
g312
(g1592
g314
Ntp3072
Rp3073
(dp3074
g1596
g1388
sg1597
g1880
sg338
g1386
sbsS'IwUtilInitTerm.h'
p3075
g312
(g1592
g314
Ntp3076
Rp3077
(dp3078
g1596
g1463
sg1597
g1633
sg338
g1466
sbsS'pthread_1.h'
p3079
g312
(g1592
g314
Ntp3080
Rp3081
(dp3082
g1596
g1604
sg1597
g1605
sg338
S'c:/marmalade/7.4/s3e/h/std/c++/pthread.h'
p3083
sbsS'iw2d.mkf'
p3084
g312
(g1592
g314
Ntp3085
Rp3086
(dp3087
g1596
g1272
sg1597
g1697
sg338
g1270
sbsS'complex'
p3088
g312
(g1592
g314
Ntp3089
Rp3090
(dp3091
g1596
g1604
sg1597
g1605
sg338
S'c:/marmalade/7.4/s3e/h/std/c++/complex'
p3092
sbsS'game.cpp'
p3093
g312
(g1592
g314
Ntp3094
Rp3095
(dp3096
g1596
g1162
sg1597
g1748
sg338
g1199
sbsS'algorithm'
p3097
g312
(g1592
g314
Ntp3098
Rp3099
(dp3100
g1596
g1604
sg1597
g1605
sg338
S'c:/marmalade/7.4/s3e/h/std/c++/algorithm'
p3101
sbsS's3e.icf'
p3102
g312
(g1592
g314
Ntp3103
Rp3104
(dp3105
g1596
g1604
sg1597
g1620
sg338
S'c:/marmalade/7.4/s3e/s3e.icf'
p3106
sbsS'IwVariableBitField.h'
p3107
g312
(g1592
g314
Ntp3108
Rp3109
(dp3110
g1596
g1463
sg1597
g1633
sg338
g1559
sbsS'resources.h'
p3111
g312
(g1592
g314
Ntp3112
Rp3113
(dp3114
g1596
g1162
sg1597
g1748
sg338
g1193
sbsS'IwGxFontState.h'
p3115
g312
(g1592
g314
Ntp3116
Rp3117
(dp3118
g1596
g1277
sg1597
g1598
sg338
g1288
sbsS'stdio.h'
p3119
g312
(g1592
g314
Ntp3120
Rp3121
(dp3122
g1596
g1604
sg1597
g1626
sg338
S'c:/marmalade/7.4/s3e/h/std/stdio.h'
p3123
sbsS'jmemsys.h'
p3124
g312
(g1592
g314
Ntp3125
Rp3126
(dp3127
g1596
g1066
sg1597
g1692
sg338
g1067
sbsS'ios'
p3128
g312
(g1592
g314
Ntp3129
Rp3130
(dp3131
g1596
g1604
sg1597
g1605
sg338
S'c:/marmalade/7.4/s3e/h/std/c++/ios'
p3132
sbsS'IwTween.h'
p3133
g312
(g1592
g314
Ntp3134
Rp3135
(dp3136
g1596
g1578
sg1597
g2138
sg338
g1579
sbsS'PVRTexTool.defines.txt'
p3137
g312
(g1592
g314
Ntp3138
Rp3139
(dp3140
g1596
g1227
sg1597
g2501
sg338
g1228
sbsS'stack'
p3141
g312
(g1592
g314
Ntp3142
Rp3143
(dp3144
g1596
g1604
sg1597
g1605
sg338
S'c:/marmalade/7.4/s3e/h/std/c++/stack'
p3145
sbsS'stringExtensions.h'
p3146
g312
(g1592
g314
Ntp3147
Rp3148
(dp3149
g1596
g1162
sg1597
g1748
sg338
g1160
sbsS'IwSoundParams.h'
p3150
g312
(g1592
g314
Ntp3151
Rp3152
(dp3153
g1596
g1110
sg1597
g1644
sg338
g1148
sbsS'new.h'
p3154
g312
(g1592
g314
Ntp3155
Rp3156
(dp3157
g1596
g1604
sg1597
g1605
sg338
S'c:/marmalade/7.4/s3e/h/std/c++/new.h'
p3158
sbsS's3eEMail.h'
p3159
g312
(g1592
g314
Ntp3160
Rp3161
(dp3162
g1596
g1604
sg1597
g1835
sg338
S'c:/marmalade/7.4/s3e/h/ext/s3eEMail.h'
p3163
sbsS's3eVideo.h'
p3164
g312
(g1592
g314
Ntp3165
Rp3166
(dp3167
g1596
g1604
sg1597
g1620
sg338
S'c:/marmalade/7.4/s3e/h/s3eVideo.h'
p3168
sbsS'pngconf.h'
p3169
g312
(g1592
g314
Ntp3170
Rp3171
(dp3172
g1596
g1055
sg1597
g2375
sg338
g1056
sbsS'pwd.h'
p3173
g312
(g1592
g314
Ntp3174
Rp3175
(dp3176
g1596
g1604
sg1597
g1626
sg338
S'c:/marmalade/7.4/s3e/h/std/pwd.h'
p3177
sbsS'gl3.h'
p3178
g312
(g1592
g314
Ntp3179
Rp3180
(dp3181
g1596
g1604
sg1597
g1937
sg338
S'c:/marmalade/7.4/s3e/h/GLES3/gl3.h'
p3182
sbsS'IwClip.h'
p3183
g312
(g1592
g314
Ntp3184
Rp3185
(dp3186
g1596
g1399
sg1597
g1738
sg338
g1416
sbsS'IwSoundInst.h'
p3187
g312
(g1592
g314
Ntp3188
Rp3189
(dp3190
g1596
g1110
sg1597
g1644
sg338
g1154
sbsS'iwresmanager.config.txt'
p3191
g312
(g1592
g314
Ntp3192
Rp3193
(dp3194
g1596
g1375
sg1597
g1880
sg338
g1393
sbsS'IwGxShaderTechnique.h'
p3195
g312
(g1592
g314
Ntp3196
Rp3197
(dp3198
g1596
g1399
sg1597
g1738
sg338
g1443
sbsS'IwCore.h'
p3199
g312
(g1592
g314
Ntp3200
Rp3201
(dp3202
g1596
g1463
sg1597
g1633
sg338
g1480
sbsS'cfloat'
p3203
g312
(g1592
g314
Ntp3204
Rp3205
(dp3206
g1596
g1604
sg1597
g1605
sg338
S'c:/marmalade/7.4/s3e/h/std/c++/cfloat'
p3207
sbsS'IwGeomMat2D.h'
p3208
g312
(g1592
g314
Ntp3209
Rp3210
(dp3211
g1596
g1299
sg1597
g1658
sg338
g1355
sbsS'IwAllocator.h'
p3212
g312
(g1592
g314
Ntp3213
Rp3214
(dp3215
g1596
g1463
sg1597
g1633
sg338
g1500
sbsS'IwPath.h'
p3216
g312
(g1592
g314
Ntp3217
Rp3218
(dp3219
g1596
g1463
sg1597
g1633
sg338
g1555
sbsS'iwgxfont.mkf'
p3220
g312
(g1592
g314
Ntp3221
Rp3222
(dp3223
g1596
g1294
sg1597
g1598
sg338
g1292
sbsS'IwTexture.h'
p3224
g312
(g1592
g314
Ntp3225
Rp3226
(dp3227
g1596
g1399
sg1597
g1738
sg338
g1408
sbsS'IwGeomVec.h.tpl'
p3228
g312
(g1592
g314
Ntp3229
Rp3230
(dp3231
g1596
g1299
sg1597
g1658
sg338
g1307
sbsS's3eAccelerometer.h'
p3232
g312
(g1592
g314
Ntp3233
Rp3234
(dp3235
g1596
g1604
sg1597
g1620
sg338
S'c:/marmalade/7.4/s3e/h/s3eAccelerometer.h'
p3236
sbsS'setjmp.h'
p3237
g312
(g1592
g314
Ntp3238
Rp3239
(dp3240
g1596
g1604
sg1597
g1626
sg338
S'c:/marmalade/7.4/s3e/h/std/setjmp.h'
p3241
sbsS'IwSoundParams.cpp'
p3242
g312
(g1592
g314
Ntp3243
Rp3244
(dp3245
g1596
g1110
sg1597
g1644
sg338
g1128
sbsS'IwFile.h'
p3246
g312
(g1592
g314
Ntp3247
Rp3248
(dp3249
g1596
g1463
sg1597
g1633
sg338
g1506
sbsS'IwTextParseable.h'
p3250
g312
(g1592
g314
Ntp3251
Rp3252
(dp3253
g1596
g1463
sg1597
g1633
sg338
g1504
sbsS'istream.h'
p3254
g312
(g1592
g314
Ntp3255
Rp3256
(dp3257
g1596
g1604
sg1597
g1605
sg338
S'c:/marmalade/7.4/s3e/h/std/c++/istream.h'
p3258
sbsS'stdint.h'
p3259
g312
(g1592
g314
Ntp3260
Rp3261
(dp3262
g1596
g1604
sg1597
g1626
sg338
S'c:/marmalade/7.4/s3e/h/std/stdint.h'
p3263
sbsS'semaphore.h'
p3264
g312
(g1592
g314
Ntp3265
Rp3266
(dp3267
g1596
g1604
sg1597
g1626
sg338
S'c:/marmalade/7.4/s3e/h/std/semaphore.h'
p3268
sbsS'ctime'
p3269
g312
(g1592
g314
Ntp3270
Rp3271
(dp3272
g1596
g1604
sg1597
g1605
sg338
S'c:/marmalade/7.4/s3e/h/std/c++/ctime'
p3273
sbsS'sstream'
p3274
g312
(g1592
g314
Ntp3275
Rp3276
(dp3277
g1596
g1604
sg1597
g1605
sg338
S'c:/marmalade/7.4/s3e/h/std/c++/sstream'
p3278
sbsS'IwGeomFBBox.h'
p3279
g312
(g1592
g314
Ntp3280
Rp3281
(dp3282
g1596
g1299
sg1597
g1658
sg338
g1321
sbsS'IwDebugPrim.h'
p3283
g312
(g1592
g314
Ntp3284
Rp3285
(dp3286
g1596
g1399
sg1597
g1738
sg338
g1397
sbsS'IwGxFontContainer.h'
p3287
g312
(g1592
g314
Ntp3288
Rp3289
(dp3290
g1596
g1277
sg1597
g1598
sg338
g1290
sbsS'IwGeomSVec3.h'
p3291
g312
(g1592
g314
Ntp3292
Rp3293
(dp3294
g1596
g1299
sg1597
g1658
sg338
g1333
sbsS'iw2dscenegraphcore.mkf'
p3295
g312
(g1592
g314
Ntp3296
Rp3297
(dp3298
g1596
g1453
sg1597
g2735
sg338
g1451
sbsS's3eExt.h'
p3299
g312
(g1592
g314
Ntp3300
Rp3301
(dp3302
g1596
g1604
sg1597
g1620
sg338
S'c:/marmalade/7.4/s3e/h/s3eExt.h'
p3303
sbsS'IwGeomFVec3.h'
p3304
g312
(g1592
g314
Ntp3305
Rp3306
(dp3307
g1596
g1299
sg1597
g1658
sg338
g1359
sbsS'streambuf'
p3308
g312
(g1592
g314
Ntp3309
Rp3310
(dp3311
g1596
g1604
sg1597
g1605
sg338
S'c:/marmalade/7.4/s3e/h/std/c++/streambuf'
p3312
sbsS's3eMetrics.h'
p3313
g312
(g1592
g314
Ntp3314
Rp3315
(dp3316
g1596
g1604
sg1597
g1835
sg338
S'c:/marmalade/7.4/s3e/h/ext/s3eMetrics.h'
p3317
sbsS'IwGxFont.h'
p3318
g312
(g1592
g314
Ntp3319
Rp3320
(dp3321
g1596
g1277
sg1597
g1598
sg338
g1282
sbsS's3eSecureStorage.h'
p3322
g312
(g1592
g314
Ntp3323
Rp3324
(dp3325
g1596
g1604
sg1597
g1620
sg338
S'c:/marmalade/7.4/s3e/h/s3eSecureStorage.h'
p3326
sbsS'string.h'
p3327
g312
(g1592
g314
Ntp3328
Rp3329
(dp3330
g1596
g1604
sg1597
g1626
sg338
S'c:/marmalade/7.4/s3e/h/std/string.h'
p3331
sbsS'IwResource.h'
p3332
g312
(g1592
g314
Ntp3333
Rp3334
(dp3335
g1596
g1463
sg1597
g1633
sg338
g1478
sbsS'IwGeomSVec2.h'
p3336
g312
(g1592
g314
Ntp3337
Rp3338
(dp3339
g1596
g1299
sg1597
g1658
sg338
g1353
sbsS'libjpeg.mkf'
p3340
g312
(g1592
g314
Ntp3341
Rp3342
(dp3343
g1596
g1095
sg1597
(lp3344
g1061
asg338
g1093
sbsS'IwGxDebug.h'
p3345
g312
(g1592
g314
Ntp3346
Rp3347
(dp3348
g1596
g1399
sg1597
g1738
sg338
g1422
sbsS'pthread_types.h'
p3349
g312
(g1592
g314
Ntp3350
Rp3351
(dp3352
g1596
g1604
sg1597
g1626
sg338
S'c:/marmalade/7.4/s3e/h/std/pthread_types.h'
p3353
sbsS'iomanip.h'
p3354
g312
(g1592
g314
Ntp3355
Rp3356
(dp3357
g1596
g1604
sg1597
g1605
sg338
S'c:/marmalade/7.4/s3e/h/std/c++/iomanip.h'
p3358
sbsS'IwKeymap.h'
p3359
g312
(g1592
g314
Ntp3360
Rp3361
(dp3362
g1596
g1463
sg1597
g1633
sg338
g1542
sbsS'IwDebug.h'
p3363
g312
(g1592
g314
Ntp3364
Rp3365
(dp3366
g1596
g1463
sg1597
g1633
sg338
g1470
sbsS'IwOptimiseThumb.h'
p3367
g312
(g1592
g314
Ntp3368
Rp3369
(dp3370
g1596
g1463
sg1597
g1633
sg338
g1551
sbsS'IwGeomMenu.h'
p3371
g312
(g1592
g314
Ntp3372
Rp3373
(dp3374
g1596
g1299
sg1597
g1658
sg338
g1313
sbsS'levelSelect.h'
p3375
g312
(g1592
g314
Ntp3376
Rp3377
(dp3378
g1596
g1162
sg1597
g1748
sg338
g1189
sbsS'IwDivTable.h'
p3379
g312
(g1592
g314
Ntp3380
Rp3381
(dp3382
g1596
g1463
sg1597
g1633
sg338
g1472
sbsS'ctype.h'
p3383
g312
(g1592
g314
Ntp3384
Rp3385
(dp3386
g1596
g1604
sg1597
g1626
sg338
S'c:/marmalade/7.4/s3e/h/std/ctype.h'
p3387
sbsS'mainMenu.cpp'
p3388
g312
(g1592
g314
Ntp3389
Rp3390
(dp3391
g1596
g1162
sg1597
g1748
sg338
g1215
sbsS'IwResGroup.h'
p3392
g312
(g1592
g314
Ntp3393
Rp3394
(dp3395
g1596
g1375
sg1597
g1880
sg338
g1376
sbsS'signal_1.h'
p3396
g312
(g1592
g314
Ntp3397
Rp3398
(dp3399
g1596
g1604
sg1597
g1757
sg338
S'c:/marmalade/7.4/s3e/h/std/sys/signal.h'
p3400
sbsS'IwSoundData.cpp'
p3401
g312
(g1592
g314
Ntp3402
Rp3403
(dp3404
g1596
g1110
sg1597
g1644
sg338
g1146
sbsS'main.cpp'
p3405
g312
(g1592
g314
Ntp3406
Rp3407
(dp3408
g1596
g1162
sg1597
g1748
sg338
g1217
sbsS'shm.h'
p3409
g312
(g1592
g314
Ntp3410
Rp3411
(dp3412
g1596
g1604
sg1597
g1757
sg338
S'c:/marmalade/7.4/s3e/h/std/sys/shm.h'
p3413
sbsS'IwManagedList.h'
p3414
g312
(g1592
g314
Ntp3415
Rp3416
(dp3417
g1596
g1463
sg1597
g1633
sg338
g1490
sbsS'prctl.h'
p3418
g312
(g1592
g314
Ntp3419
Rp3420
(dp3421
g1596
g1604
sg1597
g1757
sg338
S'c:/marmalade/7.4/s3e/h/std/sys/prctl.h'
p3422
sbsS'IwGxStream.h'
p3423
g312
(g1592
g314
Ntp3424
Rp3425
(dp3426
g1596
g1399
sg1597
g1738
sg338
g1426
sbsS'temp_defines_debug.h'
p3427
g312
(g1592
g314
Ntp3428
Rp3429
(dp3430
g1596
(lp3431
sg1597
(lp3432
g2947
asg338
S'c:/Users/User/Desktop/SlidingHome/build_slidinghomec_vc11/temp_defines_debug.h'
p3433
sbsS'utility'
p3434
g312
(g1592
g314
Ntp3435
Rp3436
(dp3437
g1596
g1604
sg1597
g1605
sg338
S'c:/marmalade/7.4/s3e/h/std/c++/utility'
p3438
sbsS'input.h'
p3439
g312
(g1592
g314
Ntp3440
Rp3441
(dp3442
g1596
g1162
sg1597
g1748
sg338
g1207
sbsS'IwGeomLegacy.h'
p3443
g312
(g1592
g314
Ntp3444
Rp3445
(dp3446
g1596
g1299
sg1597
g1658
sg338
g1341
sbsS'IwTPage.h'
p3447
g312
(g1592
g314
Ntp3448
Rp3449
(dp3450
g1596
g1399
sg1597
g1738
sg338
g1418
sbsS'IwResSerialise.h'
p3451
g312
(g1592
g314
Ntp3452
Rp3453
(dp3454
g1596
g1375
sg1597
g1880
sg338
g1382
sbsS's3eCrypto.h'
p3455
g312
(g1592
g314
Ntp3456
Rp3457
(dp3458
g1596
g1604
sg1597
g1620
sg338
S'c:/marmalade/7.4/s3e/h/s3eCrypto.h'
p3459
sbsS's3eKeyboard.h'
p3460
g312
(g1592
g314
Ntp3461
Rp3462
(dp3463
g1596
g1604
sg1597
g1620
sg338
S'c:/marmalade/7.4/s3e/h/s3eKeyboard.h'
p3464
sbsS'fcntl.h'
p3465
g312
(g1592
g314
Ntp3466
Rp3467
(dp3468
g1596
g1604
sg1597
g1626
sg338
S'c:/marmalade/7.4/s3e/h/std/fcntl.h'
p3469
sbsS'Iw2DSceneGraphCore.h'
p3470
g312
(g1592
g314
Ntp3471
Rp3472
(dp3473
g1596
g1456
sg1597
g2735
sg338
g1457
sbsS'memory.h'
p3474
g312
(g1592
g314
Ntp3475
Rp3476
(dp3477
g1596
g1604
sg1597
g1626
sg338
S'c:/marmalade/7.4/s3e/h/std/memory.h'
p3478
sbsS'pthread.h'
p3479
g312
(g1592
g314
Ntp3480
Rp3481
(dp3482
g1596
g1604
sg1597
g1626
sg338
S'c:/marmalade/7.4/s3e/h/std/pthread.h'
p3483
sbsS'IwGeomIntersect.h'
p3484
g312
(g1592
g314
Ntp3485
Rp3486
(dp3487
g1596
g1299
sg1597
g1658
sg338
g1351
sbsS'IwTextParserITX.h'
p3488
g312
(g1592
g314
Ntp3489
Rp3490
(dp3491
g1596
g1463
sg1597
g1633
sg338
g1482
sbsS'IwClip.inl'
p3492
g312
(g1592
g314
Ntp3493
Rp3494
(dp3495
g1596
g1399
sg1597
g1738
sg338
g1402
sbsS'Iw2DSceneGraph.cpp'
p3496
g312
(g1592
g314
Ntp3497
Rp3498
(dp3499
g1596
g1241
sg1597
g1926
sg338
g1242
sbsS'ostream.h'
p3500
g312
(g1592
g314
Ntp3501
Rp3502
(dp3503
g1596
g1604
sg1597
g1605
sg338
S'c:/marmalade/7.4/s3e/h/std/c++/ostream.h'
p3504
sbsS'stl_user_config.h'
p3505
g312
(g1592
g314
Ntp3506
Rp3507
(dp3508
g1596
g1604
sg1597
g1605
sg338
S'c:/marmalade/7.4/s3e/h/std/c++/stl_user_config.h'
p3509
sbsS'IwProfileMenu.h'
p3510
g312
(g1592
g314
Ntp3511
Rp3512
(dp3513
g1596
g1463
sg1597
g1633
sg338
g1488
sbsS'MarmaladeVersion.h'
p3514
g312
(g1592
g314
Ntp3515
Rp3516
(dp3517
g1596
g1604
sg1597
g1620
sg338
S'c:/marmalade/7.4/s3e/h/MarmaladeVersion.h'
p3518
sbsS'IwResHandlerWAV.h'
p3519
g312
(g1592
g314
Ntp3520
Rp3521
(dp3522
g1596
g1110
sg1597
g1644
sg338
g1138
sbsS'gl3platform.h'
p3523
g312
(g1592
g314
Ntp3524
Rp3525
(dp3526
g1596
g1604
sg1597
g1937
sg338
S'c:/marmalade/7.4/s3e/h/GLES3/gl3platform.h'
p3527
sbsS'ios.h'
p3528
g312
(g1592
g314
Ntp3529
Rp3530
(dp3531
g1596
g1604
sg1597
g1605
sg338
S'c:/marmalade/7.4/s3e/h/std/c++/ios.h'
p3532
sbsS'IwImageHelper.h'
p3533
g312
(g1592
g314
Ntp3534
Rp3535
(dp3536
g1596
g1463
sg1597
g1633
sg338
g1520
sbsS'hash_set'
p3537
g312
(g1592
g314
Ntp3538
Rp3539
(dp3540
g1596
g1604
sg1597
g1605
sg338
S'c:/marmalade/7.4/s3e/h/std/c++/hash_set'
p3541
sbsS'IwGeomFQuat.h'
p3542
g312
(g1592
g314
Ntp3543
Rp3544
(dp3545
g1596
g1299
sg1597
g1658
sg338
g1311
sbsS'jmorecfg.h'
p3546
g312
(g1592
g314
Ntp3547
Rp3548
(dp3549
g1596
g1066
sg1597
g1692
sg338
g1091
sbsS'eglplatform.h'
p3550
g312
(g1592
g314
Ntp3551
Rp3552
(dp3553
g1596
g1604
sg1597
g1969
sg338
S'c:/marmalade/7.4/s3e/h/EGL/eglplatform.h'
p3554
sbsS'cmath'
p3555
g312
(g1592
g314
Ntp3556
Rp3557
(dp3558
g1596
g1604
sg1597
g1605
sg338
S'c:/marmalade/7.4/s3e/h/std/c++/cmath'
p3559
sbsS'math_gcc.h'
p3560
g312
(g1592
g314
Ntp3561
Rp3562
(dp3563
g1596
g1604
sg1597
g1626
sg338
S'c:/marmalade/7.4/s3e/h/std/math_gcc.h'
p3564
sbsS's3eMemory.h'
p3565
g312
(g1592
g314
Ntp3566
Rp3567
(dp3568
g1596
g1604
sg1597
g1620
sg338
S'c:/marmalade/7.4/s3e/h/s3eMemory.h'
p3569
sbsS'blankObject.h'
p3570
g312
(g1592
g314
Ntp3571
Rp3572
(dp3573
g1596
g1162
sg1597
g1748
sg338
g1197
sbsS'strings.h'
p3574
g312
(g1592
g314
Ntp3575
Rp3576
(dp3577
g1596
g1604
sg1597
g1626
sg338
S'c:/marmalade/7.4/s3e/h/std/strings.h'
p3578
sbsS's3eFile.h'
p3579
g312
(g1592
g314
Ntp3580
Rp3581
(dp3582
g1596
g1604
sg1597
g1620
sg338
S'c:/marmalade/7.4/s3e/h/s3eFile.h'
p3583
sbsS'IwGxTypes.h'
p3584
g312
(g1592
g314
Ntp3585
Rp3586
(dp3587
g1596
g1399
sg1597
g1738
sg338
g1445
sbsS'cerrno'
p3588
g312
(g1592
g314
Ntp3589
Rp3590
(dp3591
g1596
g1604
sg1597
g1605
sg338
S'c:/marmalade/7.4/s3e/h/std/c++/cerrno'
p3592
sbsS'IwSoundManager.cpp'
p3593
g312
(g1592
g314
Ntp3594
Rp3595
(dp3596
g1596
g1110
sg1597
g1644
sg338
g1120
sbsS'main.h'
p3597
g312
(g1592
g314
Ntp3598
Rp3599
(dp3600
g1596
g1162
sg1597
g1748
sg338
g1195
sbsS'soundengine.mkf'
p3601
g312
(g1592
g314
Ntp3602
Rp3603
(dp3604
g1596
g1119
sg1597
g1644
sg338
g1117
sbsS'resource.h'
p3605
g312
(g1592
g314
Ntp3606
Rp3607
(dp3608
g1596
g1604
sg1597
g1757
sg338
S'c:/marmalade/7.4/s3e/h/std/sys/resource.h'
p3609
sbsS'clocale'
p3610
g312
(g1592
g314
Ntp3611
Rp3612
(dp3613
g1596
g1604
sg1597
g1605
sg338
S'c:/marmalade/7.4/s3e/h/std/c++/clocale'
p3614
sbsS'pvrtextool.mkf'
p3615
g312
(g1592
g314
Ntp3616
Rp3617
(dp3618
g1596
g1232
sg1597
g2243
sg338
g1230
sbsS'csetjmp'
p3619
g312
(g1592
g314
Ntp3620
Rp3621
(dp3622
g1596
g1604
sg1597
g1605
sg338
S'c:/marmalade/7.4/s3e/h/std/c++/csetjmp'
p3623
sbsS'netdb.h'
p3624
g312
(g1592
g314
Ntp3625
Rp3626
(dp3627
g1596
g1604
sg1597
g1626
sg338
S'c:/marmalade/7.4/s3e/h/std/netdb.h'
p3628
sbsS's3eAndroidJNI.h'
p3629
g312
(g1592
g314
Ntp3630
Rp3631
(dp3632
g1596
g1604
sg1597
g1835
sg338
S'c:/marmalade/7.4/s3e/h/ext/s3eAndroidJNI.h'
p3633
sbsS'stdexcept'
p3634
g312
(g1592
g314
Ntp3635
Rp3636
(dp3637
g1596
g1604
sg1597
g1605
sg338
S'c:/marmalade/7.4/s3e/h/std/c++/stdexcept'
p3638
sbsS'math.h'
p3639
g312
(g1592
g314
Ntp3640
Rp3641
(dp3642
g1596
g1604
sg1597
g1626
sg338
S'c:/marmalade/7.4/s3e/h/std/math.h'
p3643
sbsS'stdbool.h'
p3644
g312
(g1592
g314
Ntp3645
Rp3646
(dp3647
g1596
g1604
sg1597
g1626
sg338
S'c:/marmalade/7.4/s3e/h/std/stdbool.h'
p3648
sbsS'uio.h'
p3649
g312
(g1592
g314
Ntp3650
Rp3651
(dp3652
g1596
g1604
sg1597
g1757
sg338
S'c:/marmalade/7.4/s3e/h/std/sys/uio.h'
p3653
sbsS'IwUncopyable.h'
p3654
g312
(g1592
g314
Ntp3655
Rp3656
(dp3657
g1596
g1463
sg1597
g1633
sg338
g1512
sbssS'juice_build_type'
p3658
g4
sS'tests'
p3659
(lp3660
sS'project_name'
p3661
g320
sS'root_file'
p3662
g125
sS'current_root'
p3663
S'c:/Users/User/Desktop/SlidingHome'
p3664
sS'dependencies'
p3665
(lp3666
sS'include_paths'
p3667
(lp3668
S'c:/marmalade/7.4/modules/iw2d/h'
p3669
aS'c:/marmalade/7.4/modules/iwgx/h'
p3670
aS'c:/marmalade/7.4/modules/iwgl/h'
p3671
aS'c:/marmalade/7.4/modules/iwutil/h'
p3672
aS'c:/marmalade/7.4/modules/third_party/libjpeg/h'
p3673
aS'c:/marmalade/7.4/modules/third_party/zlib/h'
p3674
aS'c:/marmalade/7.4/modules/third_party/libpng/h'
p3675
aS'c:/marmalade/7.4/modules/iwgeom/h'
p3676
aS'c:/marmalade/7.4/modules/iwresmanager/h'
p3677
aS'c:/marmalade/7.4/extensions/pvrtextool/h'
p3678
aS'c:/marmalade/7.4/modules/iwgxfont/h'
p3679
aS'c:/marmalade/7.4/modules/third_party/tiniconv/source'
p3680
aS'c:/marmalade/7.4/modules/iw2dscenegraph/h'
p3681
aS'c:/marmalade/7.4/modules/iw2dscenegraphcore/h'
p3682
aS'c:/marmalade/7.4/modules/iwtween/h'
p3683
aS'c:/users/user/desktop/slidinghome/modules/soundengine/h'
p3684
aS'c:/users/user/desktop/slidinghome/modules/soundengine/source'
p3685
aS'c:/marmalade/7.4/s3e/h'
p3686
aS'c:/marmalade/7.4/s3e/h/ext'
p3687
aS'c:/marmalade/7.4/s3e/h/std'
p3688
aS'c:/marmalade/7.4/s3e/h/std/c++'
p3689
aS'c:/marmalade/7.4/s3e/h/ext_legacy'
p3690
aS'c:/marmalade/7.4/s3e/h/legacy'
p3691
asS'weak_frameworks'
p3692
(lp3693
sS'extprojects'
p3694
(dp3695
sg580
(dp3696
g574
(lp3697
(S'c:/Users/User/Desktop/SlidingHome/data'
p3698
S'.'
p3699
I0
tp3700
a(S'c:/Users/User/Desktop/SlidingHome/data/audio'
p3701
S'audio'
p3702
I0
tp3703
a(S'c:/Users/User/Desktop/SlidingHome/data/textures'
p3704
S'textures'
p3705
I0
tp3706
a(S'c:/Users/User/Desktop/SlidingHome/data/fonts'
p3707
S'fonts'
p3708
I0
tp3709
a(S'c:/Users/User/Desktop/SlidingHome/data-ram/data-gles1,c:/Users/User/Desktop/SlidingHome/data'
p3710
g3699
I0
tp3711
assS'macro_types'
p3712
(dp3713
g511
I1
sg512
I0
sg513
I0
sg514
I0
sg516
I0
sg517
I0
sg518
I0
sg519
I0
sg520
I0
sg522
I0
sg523
I0
sg524
I0
sg525
I0
sg526
I0
sg528
I0
sg530
I0
sg531
I0
sg532
I0
sg533
I0
sg534
I0
sg535
I0
sg536
I0
sg537
I1
sg538
I0
sg539
I0
sg540
I0
sg541
I0
sg542
I01
sg543
I1
sg544
I0
sg545
I0
sg546
I0
sg547
I0
sg548
I0
sg549
I0
sg550
I0
ssS'commands'
p3714
(lp3715
sg582
(g1042
S'VC11'
p3716
S'X86ARM'
p3717
tp3718
sS'build_libs'
p3719
(dp3720
sg584
g0
sS'frameworks'
p3721
(lp3722
sS'environ'
p3723
(dp3724
sS'target_name_debug'
p3725
g320
sS'builders'
p3726
(dp3727
g574
(dp3728
S'.S'
p3729
(dp3730
S'rvct'
p3731
(lp3732
S'.obj'
p3733
aS'echo ARM Assembling(RVCT) ${SOURCE}...'
p3734
aS'c:/marmalade/7.4/s3e\\rvct\\bin\\armasm -o ${TARGET} ${SOURCE}'
p3735
asg434
(lp3736
g3733
aS'echo ARM Assembling(GCC) ${SOURCE}...'
p3737
aS'c:/marmalade/7.4/s3e\\gcc\\bin\\arm-none-eabi-gcc -c -o ${TARGET} ${SOURCE}'
p3738
asS'ppu'
p3739
(lp3740
S'.a'
p3741
aS'echo PPU Assembling(SNC) ${SOURCE}...'
p3742
aS'c:/marmalade/7.4/s3e\\rvct\\bin\\armasm -o ${TARGET} ${SOURCE}'
p3743
assS'.s'
p3744
g3730
sS'.vp'
p3745
(lp3746
NaS'"C:/Marmalade/7.4/s3e/python/python.exe" "c:/marmalade/7.4/modules/iwgx/tools/compile_shaders.py" ${SOURCE}'
p3747
asssS'extproject_names'
p3748
(lp3749
sbtp3750
.